
kernel/kernel:     file format elf64-littleriscv


Disassembly of section .text:

0000000080000000 <_entry>:
_entry:
        # set up a stack for C.
        # stack0 is declared in start.c,
        # with a 4096-byte stack per CPU.
        # sp = stack0 + ((hartid + 1) * 4096)
        la sp, stack0
    80000000:	00009117          	auipc	sp,0x9
    80000004:	d2010113          	addi	sp,sp,-736 # 80008d20 <stack0>
        li a0, 1024*4
    80000008:	6505                	lui	a0,0x1
        csrr a1, mhartid
    8000000a:	f14025f3          	csrr	a1,mhartid
        addi a1, a1, 1
    8000000e:	0585                	addi	a1,a1,1
        mul a0, a0, a1
    80000010:	02b50533          	mul	a0,a0,a1
        add sp, sp, a0
    80000014:	912a                	add	sp,sp,a0
        # jump to start() in start.c
        call start
    80000016:	04a000ef          	jal	ra,80000060 <start>

000000008000001a <spin>:
spin:
        j spin
    8000001a:	a001                	j	8000001a <spin>

000000008000001c <timerinit>:
}

// ask each hart to generate timer interrupts.
void
timerinit()
{
    8000001c:	1141                	addi	sp,sp,-16
    8000001e:	e422                	sd	s0,8(sp)
    80000020:	0800                	addi	s0,sp,16
#define MIE_STIE (1L << 5)  // supervisor timer
static inline uint64
r_mie()
{
  uint64 x;
  asm volatile("csrr %0, mie" : "=r" (x) );
    80000022:	304027f3          	csrr	a5,mie
  // enable supervisor-mode timer interrupts.
  w_mie(r_mie() | MIE_STIE);
    80000026:	0207e793          	ori	a5,a5,32
}

static inline void 
w_mie(uint64 x)
{
  asm volatile("csrw mie, %0" : : "r" (x));
    8000002a:	30479073          	csrw	mie,a5
static inline uint64
r_menvcfg()
{
  uint64 x;
  // asm volatile("csrr %0, menvcfg" : "=r" (x) );
  asm volatile("csrr %0, 0x30a" : "=r" (x) );
    8000002e:	30a027f3          	csrr	a5,0x30a
  
  // enable the sstc extension (i.e. stimecmp).
  w_menvcfg(r_menvcfg() | (1L << 63)); 
    80000032:	577d                	li	a4,-1
    80000034:	177e                	slli	a4,a4,0x3f
    80000036:	8fd9                	or	a5,a5,a4

static inline void 
w_menvcfg(uint64 x)
{
  // asm volatile("csrw menvcfg, %0" : : "r" (x));
  asm volatile("csrw 0x30a, %0" : : "r" (x));
    80000038:	30a79073          	csrw	0x30a,a5

static inline uint64
r_mcounteren()
{
  uint64 x;
  asm volatile("csrr %0, mcounteren" : "=r" (x) );
    8000003c:	306027f3          	csrr	a5,mcounteren
  
  // allow supervisor to use stimecmp and time.
  w_mcounteren(r_mcounteren() | 2);
    80000040:	0027e793          	ori	a5,a5,2
  asm volatile("csrw mcounteren, %0" : : "r" (x));
    80000044:	30679073          	csrw	mcounteren,a5
// machine-mode cycle counter
static inline uint64
r_time()
{
  uint64 x;
  asm volatile("csrr %0, time" : "=r" (x) );
    80000048:	c01027f3          	rdtime	a5
  
  // ask for the very first timer interrupt.
  w_stimecmp(r_time() + 1000000);
    8000004c:	000f4737          	lui	a4,0xf4
    80000050:	24070713          	addi	a4,a4,576 # f4240 <_entry-0x7ff0bdc0>
    80000054:	97ba                	add	a5,a5,a4
  asm volatile("csrw 0x14d, %0" : : "r" (x));
    80000056:	14d79073          	csrw	0x14d,a5
}
    8000005a:	6422                	ld	s0,8(sp)
    8000005c:	0141                	addi	sp,sp,16
    8000005e:	8082                	ret

0000000080000060 <start>:
{
    80000060:	1141                	addi	sp,sp,-16
    80000062:	e406                	sd	ra,8(sp)
    80000064:	e022                	sd	s0,0(sp)
    80000066:	0800                	addi	s0,sp,16
  asm volatile("csrr %0, mstatus" : "=r" (x) );
    80000068:	300027f3          	csrr	a5,mstatus
  x &= ~MSTATUS_MPP_MASK;
    8000006c:	7779                	lui	a4,0xffffe
    8000006e:	7ff70713          	addi	a4,a4,2047 # ffffffffffffe7ff <end+0xffffffff7ff725d7>
    80000072:	8ff9                	and	a5,a5,a4
  x |= MSTATUS_MPP_S;
    80000074:	6705                	lui	a4,0x1
    80000076:	80070713          	addi	a4,a4,-2048 # 800 <_entry-0x7ffff800>
    8000007a:	8fd9                	or	a5,a5,a4
  asm volatile("csrw mstatus, %0" : : "r" (x));
    8000007c:	30079073          	csrw	mstatus,a5
  asm volatile("csrw mepc, %0" : : "r" (x));
    80000080:	00001797          	auipc	a5,0x1
    80000084:	d6278793          	addi	a5,a5,-670 # 80000de2 <main>
    80000088:	34179073          	csrw	mepc,a5
  asm volatile("csrw satp, %0" : : "r" (x));
    8000008c:	4781                	li	a5,0
    8000008e:	18079073          	csrw	satp,a5
  asm volatile("csrw medeleg, %0" : : "r" (x));
    80000092:	67c1                	lui	a5,0x10
    80000094:	17fd                	addi	a5,a5,-1
    80000096:	30279073          	csrw	medeleg,a5
  asm volatile("csrw mideleg, %0" : : "r" (x));
    8000009a:	30379073          	csrw	mideleg,a5
  asm volatile("csrr %0, sie" : "=r" (x) );
    8000009e:	104027f3          	csrr	a5,sie
  w_sie(r_sie() | SIE_SEIE | SIE_STIE);
    800000a2:	2207e793          	ori	a5,a5,544
  asm volatile("csrw sie, %0" : : "r" (x));
    800000a6:	10479073          	csrw	sie,a5
  asm volatile("csrw pmpaddr0, %0" : : "r" (x));
    800000aa:	57fd                	li	a5,-1
    800000ac:	83a9                	srli	a5,a5,0xa
    800000ae:	3b079073          	csrw	pmpaddr0,a5
  asm volatile("csrw pmpcfg0, %0" : : "r" (x));
    800000b2:	47bd                	li	a5,15
    800000b4:	3a079073          	csrw	pmpcfg0,a5
  timerinit();
    800000b8:	f65ff0ef          	jal	ra,8000001c <timerinit>
  asm volatile("csrr %0, mhartid" : "=r" (x) );
    800000bc:	f14027f3          	csrr	a5,mhartid
  w_tp(id);
    800000c0:	2781                	sext.w	a5,a5
}

static inline void 
w_tp(uint64 x)
{
  asm volatile("mv tp, %0" : : "r" (x));
    800000c2:	823e                	mv	tp,a5
  asm volatile("mret");
    800000c4:	30200073          	mret
}
    800000c8:	60a2                	ld	ra,8(sp)
    800000ca:	6402                	ld	s0,0(sp)
    800000cc:	0141                	addi	sp,sp,16
    800000ce:	8082                	ret

00000000800000d0 <consolewrite>:
//
// user write()s to the console go here.
//
int
consolewrite(int user_src, uint64 src, int n)
{
    800000d0:	7159                	addi	sp,sp,-112
    800000d2:	f486                	sd	ra,104(sp)
    800000d4:	f0a2                	sd	s0,96(sp)
    800000d6:	eca6                	sd	s1,88(sp)
    800000d8:	e8ca                	sd	s2,80(sp)
    800000da:	e4ce                	sd	s3,72(sp)
    800000dc:	e0d2                	sd	s4,64(sp)
    800000de:	fc56                	sd	s5,56(sp)
    800000e0:	f85a                	sd	s6,48(sp)
    800000e2:	f45e                	sd	s7,40(sp)
    800000e4:	f062                	sd	s8,32(sp)
    800000e6:	1880                	addi	s0,sp,112
  char buf[32];
  int i = 0;

  while(i < n){
    800000e8:	04c05463          	blez	a2,80000130 <consolewrite+0x60>
    800000ec:	8a2a                	mv	s4,a0
    800000ee:	8aae                	mv	s5,a1
    800000f0:	89b2                	mv	s3,a2
  int i = 0;
    800000f2:	4901                	li	s2,0
    int nn = sizeof(buf);
    if(nn > n - i)
    800000f4:	4bfd                	li	s7,31
    int nn = sizeof(buf);
    800000f6:	02000c13          	li	s8,32
      nn = n - i;
    if(either_copyin(buf, user_src, src+i, nn) == -1)
    800000fa:	5b7d                	li	s6,-1
    800000fc:	a025                	j	80000124 <consolewrite+0x54>
    800000fe:	86a6                	mv	a3,s1
    80000100:	01590633          	add	a2,s2,s5
    80000104:	85d2                	mv	a1,s4
    80000106:	f9040513          	addi	a0,s0,-112
    8000010a:	557020ef          	jal	ra,80002e60 <either_copyin>
    8000010e:	03650263          	beq	a0,s6,80000132 <consolewrite+0x62>
      break;
    uartwrite(buf, nn);
    80000112:	85a6                	mv	a1,s1
    80000114:	f9040513          	addi	a0,s0,-112
    80000118:	71e000ef          	jal	ra,80000836 <uartwrite>
    i += nn;
    8000011c:	0124893b          	addw	s2,s1,s2
  while(i < n){
    80000120:	01395963          	bge	s2,s3,80000132 <consolewrite+0x62>
    if(nn > n - i)
    80000124:	412984bb          	subw	s1,s3,s2
    80000128:	fc9bdbe3          	bge	s7,s1,800000fe <consolewrite+0x2e>
    int nn = sizeof(buf);
    8000012c:	84e2                	mv	s1,s8
    8000012e:	bfc1                	j	800000fe <consolewrite+0x2e>
  int i = 0;
    80000130:	4901                	li	s2,0
  }

  return i;
}
    80000132:	854a                	mv	a0,s2
    80000134:	70a6                	ld	ra,104(sp)
    80000136:	7406                	ld	s0,96(sp)
    80000138:	64e6                	ld	s1,88(sp)
    8000013a:	6946                	ld	s2,80(sp)
    8000013c:	69a6                	ld	s3,72(sp)
    8000013e:	6a06                	ld	s4,64(sp)
    80000140:	7ae2                	ld	s5,56(sp)
    80000142:	7b42                	ld	s6,48(sp)
    80000144:	7ba2                	ld	s7,40(sp)
    80000146:	7c02                	ld	s8,32(sp)
    80000148:	6165                	addi	sp,sp,112
    8000014a:	8082                	ret

000000008000014c <consoleread>:
// user_dist indicates whether dst is a user
// or kernel address.
//
int
consoleread(int user_dst, uint64 dst, int n)
{
    8000014c:	7159                	addi	sp,sp,-112
    8000014e:	f486                	sd	ra,104(sp)
    80000150:	f0a2                	sd	s0,96(sp)
    80000152:	eca6                	sd	s1,88(sp)
    80000154:	e8ca                	sd	s2,80(sp)
    80000156:	e4ce                	sd	s3,72(sp)
    80000158:	e0d2                	sd	s4,64(sp)
    8000015a:	fc56                	sd	s5,56(sp)
    8000015c:	f85a                	sd	s6,48(sp)
    8000015e:	f45e                	sd	s7,40(sp)
    80000160:	f062                	sd	s8,32(sp)
    80000162:	ec66                	sd	s9,24(sp)
    80000164:	e86a                	sd	s10,16(sp)
    80000166:	1880                	addi	s0,sp,112
    80000168:	8aaa                	mv	s5,a0
    8000016a:	8a2e                	mv	s4,a1
    8000016c:	89b2                	mv	s3,a2
  uint target;
  int c;
  char cbuf;

  target = n;
    8000016e:	00060b1b          	sext.w	s6,a2
  acquire(&cons.lock);
    80000172:	00011517          	auipc	a0,0x11
    80000176:	bae50513          	addi	a0,a0,-1106 # 80010d20 <cons>
    8000017a:	1f3000ef          	jal	ra,80000b6c <acquire>
  while(n > 0){
    // wait until interrupt handler has put some
    // input into cons.buffer.
    while(cons.r == cons.w){
    8000017e:	00011497          	auipc	s1,0x11
    80000182:	ba248493          	addi	s1,s1,-1118 # 80010d20 <cons>
      if(killed(myproc())){
        release(&cons.lock);
        return -1;
      }
      sleep(&cons.r, &cons.lock);
    80000186:	00011917          	auipc	s2,0x11
    8000018a:	c3290913          	addi	s2,s2,-974 # 80010db8 <cons+0x98>
    }

    c = cons.buf[cons.r++ % INPUT_BUF_SIZE];

    if(c == C('D')){  // end-of-file
    8000018e:	4b91                	li	s7,4
      break;
    }

    // copy the input byte to the user-space buffer.
    cbuf = c;
    if(either_copyout(user_dst, dst, &cbuf, 1) == -1)
    80000190:	5c7d                	li	s8,-1
      break;

    dst++;
    --n;

    if(c == '\n'){
    80000192:	4ca9                	li	s9,10
  while(n > 0){
    80000194:	07305363          	blez	s3,800001fa <consoleread+0xae>
    while(cons.r == cons.w){
    80000198:	0984a783          	lw	a5,152(s1)
    8000019c:	09c4a703          	lw	a4,156(s1)
    800001a0:	02f71163          	bne	a4,a5,800001c2 <consoleread+0x76>
      if(killed(myproc())){
    800001a4:	224020ef          	jal	ra,800023c8 <myproc>
    800001a8:	34f020ef          	jal	ra,80002cf6 <killed>
    800001ac:	e125                	bnez	a0,8000020c <consoleread+0xc0>
      sleep(&cons.r, &cons.lock);
    800001ae:	85a6                	mv	a1,s1
    800001b0:	854a                	mv	a0,s2
    800001b2:	0b9020ef          	jal	ra,80002a6a <sleep>
    while(cons.r == cons.w){
    800001b6:	0984a783          	lw	a5,152(s1)
    800001ba:	09c4a703          	lw	a4,156(s1)
    800001be:	fef703e3          	beq	a4,a5,800001a4 <consoleread+0x58>
    c = cons.buf[cons.r++ % INPUT_BUF_SIZE];
    800001c2:	0017871b          	addiw	a4,a5,1
    800001c6:	08e4ac23          	sw	a4,152(s1)
    800001ca:	07f7f713          	andi	a4,a5,127
    800001ce:	9726                	add	a4,a4,s1
    800001d0:	01874703          	lbu	a4,24(a4)
    800001d4:	00070d1b          	sext.w	s10,a4
    if(c == C('D')){  // end-of-file
    800001d8:	057d0f63          	beq	s10,s7,80000236 <consoleread+0xea>
    cbuf = c;
    800001dc:	f8e40fa3          	sb	a4,-97(s0)
    if(either_copyout(user_dst, dst, &cbuf, 1) == -1)
    800001e0:	4685                	li	a3,1
    800001e2:	f9f40613          	addi	a2,s0,-97
    800001e6:	85d2                	mv	a1,s4
    800001e8:	8556                	mv	a0,s5
    800001ea:	42d020ef          	jal	ra,80002e16 <either_copyout>
    800001ee:	01850663          	beq	a0,s8,800001fa <consoleread+0xae>
    dst++;
    800001f2:	0a05                	addi	s4,s4,1
    --n;
    800001f4:	39fd                	addiw	s3,s3,-1
    if(c == '\n'){
    800001f6:	f99d1fe3          	bne	s10,s9,80000194 <consoleread+0x48>
      // a whole line has arrived, return to
      // the user-level read().
      break;
    }
  }
  release(&cons.lock);
    800001fa:	00011517          	auipc	a0,0x11
    800001fe:	b2650513          	addi	a0,a0,-1242 # 80010d20 <cons>
    80000202:	203000ef          	jal	ra,80000c04 <release>

  return target - n;
    80000206:	413b053b          	subw	a0,s6,s3
    8000020a:	a801                	j	8000021a <consoleread+0xce>
        release(&cons.lock);
    8000020c:	00011517          	auipc	a0,0x11
    80000210:	b1450513          	addi	a0,a0,-1260 # 80010d20 <cons>
    80000214:	1f1000ef          	jal	ra,80000c04 <release>
        return -1;
    80000218:	557d                	li	a0,-1
}
    8000021a:	70a6                	ld	ra,104(sp)
    8000021c:	7406                	ld	s0,96(sp)
    8000021e:	64e6                	ld	s1,88(sp)
    80000220:	6946                	ld	s2,80(sp)
    80000222:	69a6                	ld	s3,72(sp)
    80000224:	6a06                	ld	s4,64(sp)
    80000226:	7ae2                	ld	s5,56(sp)
    80000228:	7b42                	ld	s6,48(sp)
    8000022a:	7ba2                	ld	s7,40(sp)
    8000022c:	7c02                	ld	s8,32(sp)
    8000022e:	6ce2                	ld	s9,24(sp)
    80000230:	6d42                	ld	s10,16(sp)
    80000232:	6165                	addi	sp,sp,112
    80000234:	8082                	ret
      if(n < target){
    80000236:	0009871b          	sext.w	a4,s3
    8000023a:	fd6770e3          	bgeu	a4,s6,800001fa <consoleread+0xae>
        cons.r--;
    8000023e:	00011717          	auipc	a4,0x11
    80000242:	b6f72d23          	sw	a5,-1158(a4) # 80010db8 <cons+0x98>
    80000246:	bf55                	j	800001fa <consoleread+0xae>

0000000080000248 <consputc>:
{
    80000248:	1141                	addi	sp,sp,-16
    8000024a:	e406                	sd	ra,8(sp)
    8000024c:	e022                	sd	s0,0(sp)
    8000024e:	0800                	addi	s0,sp,16
  if(c == BACKSPACE){
    80000250:	10000793          	li	a5,256
    80000254:	00f50863          	beq	a0,a5,80000264 <consputc+0x1c>
    uartputc_sync(c);
    80000258:	67c000ef          	jal	ra,800008d4 <uartputc_sync>
}
    8000025c:	60a2                	ld	ra,8(sp)
    8000025e:	6402                	ld	s0,0(sp)
    80000260:	0141                	addi	sp,sp,16
    80000262:	8082                	ret
    uartputc_sync('\b'); uartputc_sync(' '); uartputc_sync('\b');
    80000264:	4521                	li	a0,8
    80000266:	66e000ef          	jal	ra,800008d4 <uartputc_sync>
    8000026a:	02000513          	li	a0,32
    8000026e:	666000ef          	jal	ra,800008d4 <uartputc_sync>
    80000272:	4521                	li	a0,8
    80000274:	660000ef          	jal	ra,800008d4 <uartputc_sync>
    80000278:	b7d5                	j	8000025c <consputc+0x14>

000000008000027a <consoleintr>:
// do erase/kill processing, append to cons.buf,
// wake up consoleread() if a whole line has arrived.
//
void
consoleintr(int c)
{
    8000027a:	1101                	addi	sp,sp,-32
    8000027c:	ec06                	sd	ra,24(sp)
    8000027e:	e822                	sd	s0,16(sp)
    80000280:	e426                	sd	s1,8(sp)
    80000282:	e04a                	sd	s2,0(sp)
    80000284:	1000                	addi	s0,sp,32
    80000286:	84aa                	mv	s1,a0
  acquire(&cons.lock);
    80000288:	00011517          	auipc	a0,0x11
    8000028c:	a9850513          	addi	a0,a0,-1384 # 80010d20 <cons>
    80000290:	0dd000ef          	jal	ra,80000b6c <acquire>

  switch(c){
    80000294:	47d5                	li	a5,21
    80000296:	0af48063          	beq	s1,a5,80000336 <consoleintr+0xbc>
    8000029a:	0297c663          	blt	a5,s1,800002c6 <consoleintr+0x4c>
    8000029e:	47a1                	li	a5,8
    800002a0:	0cf48f63          	beq	s1,a5,8000037e <consoleintr+0x104>
    800002a4:	47c1                	li	a5,16
    800002a6:	10f49063          	bne	s1,a5,800003a6 <consoleintr+0x12c>
  case C('P'):  // Print process list.
    procdump();
    800002aa:	401020ef          	jal	ra,80002eaa <procdump>
      }
    }
    break;
  }
  
  release(&cons.lock);
    800002ae:	00011517          	auipc	a0,0x11
    800002b2:	a7250513          	addi	a0,a0,-1422 # 80010d20 <cons>
    800002b6:	14f000ef          	jal	ra,80000c04 <release>
}
    800002ba:	60e2                	ld	ra,24(sp)
    800002bc:	6442                	ld	s0,16(sp)
    800002be:	64a2                	ld	s1,8(sp)
    800002c0:	6902                	ld	s2,0(sp)
    800002c2:	6105                	addi	sp,sp,32
    800002c4:	8082                	ret
  switch(c){
    800002c6:	07f00793          	li	a5,127
    800002ca:	0af48a63          	beq	s1,a5,8000037e <consoleintr+0x104>
    if(c != 0 && cons.e-cons.r < INPUT_BUF_SIZE){
    800002ce:	00011717          	auipc	a4,0x11
    800002d2:	a5270713          	addi	a4,a4,-1454 # 80010d20 <cons>
    800002d6:	0a072783          	lw	a5,160(a4)
    800002da:	09872703          	lw	a4,152(a4)
    800002de:	9f99                	subw	a5,a5,a4
    800002e0:	07f00713          	li	a4,127
    800002e4:	fcf765e3          	bltu	a4,a5,800002ae <consoleintr+0x34>
      c = (c == '\r') ? '\n' : c;
    800002e8:	47b5                	li	a5,13
    800002ea:	0cf48163          	beq	s1,a5,800003ac <consoleintr+0x132>
      consputc(c);
    800002ee:	8526                	mv	a0,s1
    800002f0:	f59ff0ef          	jal	ra,80000248 <consputc>
      cons.buf[cons.e++ % INPUT_BUF_SIZE] = c;
    800002f4:	00011797          	auipc	a5,0x11
    800002f8:	a2c78793          	addi	a5,a5,-1492 # 80010d20 <cons>
    800002fc:	0a07a683          	lw	a3,160(a5)
    80000300:	0016871b          	addiw	a4,a3,1
    80000304:	0007061b          	sext.w	a2,a4
    80000308:	0ae7a023          	sw	a4,160(a5)
    8000030c:	07f6f693          	andi	a3,a3,127
    80000310:	97b6                	add	a5,a5,a3
    80000312:	00978c23          	sb	s1,24(a5)
      if(c == '\n' || c == C('D') || cons.e-cons.r == INPUT_BUF_SIZE){
    80000316:	47a9                	li	a5,10
    80000318:	0af48f63          	beq	s1,a5,800003d6 <consoleintr+0x15c>
    8000031c:	4791                	li	a5,4
    8000031e:	0af48c63          	beq	s1,a5,800003d6 <consoleintr+0x15c>
    80000322:	00011797          	auipc	a5,0x11
    80000326:	a967a783          	lw	a5,-1386(a5) # 80010db8 <cons+0x98>
    8000032a:	9f1d                	subw	a4,a4,a5
    8000032c:	08000793          	li	a5,128
    80000330:	f6f71fe3          	bne	a4,a5,800002ae <consoleintr+0x34>
    80000334:	a04d                	j	800003d6 <consoleintr+0x15c>
    while(cons.e != cons.w &&
    80000336:	00011717          	auipc	a4,0x11
    8000033a:	9ea70713          	addi	a4,a4,-1558 # 80010d20 <cons>
    8000033e:	0a072783          	lw	a5,160(a4)
    80000342:	09c72703          	lw	a4,156(a4)
          cons.buf[(cons.e-1) % INPUT_BUF_SIZE] != '\n'){
    80000346:	00011497          	auipc	s1,0x11
    8000034a:	9da48493          	addi	s1,s1,-1574 # 80010d20 <cons>
    while(cons.e != cons.w &&
    8000034e:	4929                	li	s2,10
    80000350:	f4f70fe3          	beq	a4,a5,800002ae <consoleintr+0x34>
          cons.buf[(cons.e-1) % INPUT_BUF_SIZE] != '\n'){
    80000354:	37fd                	addiw	a5,a5,-1
    80000356:	07f7f713          	andi	a4,a5,127
    8000035a:	9726                	add	a4,a4,s1
    while(cons.e != cons.w &&
    8000035c:	01874703          	lbu	a4,24(a4)
    80000360:	f52707e3          	beq	a4,s2,800002ae <consoleintr+0x34>
      cons.e--;
    80000364:	0af4a023          	sw	a5,160(s1)
      consputc(BACKSPACE);
    80000368:	10000513          	li	a0,256
    8000036c:	eddff0ef          	jal	ra,80000248 <consputc>
    while(cons.e != cons.w &&
    80000370:	0a04a783          	lw	a5,160(s1)
    80000374:	09c4a703          	lw	a4,156(s1)
    80000378:	fcf71ee3          	bne	a4,a5,80000354 <consoleintr+0xda>
    8000037c:	bf0d                	j	800002ae <consoleintr+0x34>
    if(cons.e != cons.w){
    8000037e:	00011717          	auipc	a4,0x11
    80000382:	9a270713          	addi	a4,a4,-1630 # 80010d20 <cons>
    80000386:	0a072783          	lw	a5,160(a4)
    8000038a:	09c72703          	lw	a4,156(a4)
    8000038e:	f2f700e3          	beq	a4,a5,800002ae <consoleintr+0x34>
      cons.e--;
    80000392:	37fd                	addiw	a5,a5,-1
    80000394:	00011717          	auipc	a4,0x11
    80000398:	a2f72623          	sw	a5,-1492(a4) # 80010dc0 <cons+0xa0>
      consputc(BACKSPACE);
    8000039c:	10000513          	li	a0,256
    800003a0:	ea9ff0ef          	jal	ra,80000248 <consputc>
    800003a4:	b729                	j	800002ae <consoleintr+0x34>
    if(c != 0 && cons.e-cons.r < INPUT_BUF_SIZE){
    800003a6:	f00484e3          	beqz	s1,800002ae <consoleintr+0x34>
    800003aa:	b715                	j	800002ce <consoleintr+0x54>
      consputc(c);
    800003ac:	4529                	li	a0,10
    800003ae:	e9bff0ef          	jal	ra,80000248 <consputc>
      cons.buf[cons.e++ % INPUT_BUF_SIZE] = c;
    800003b2:	00011797          	auipc	a5,0x11
    800003b6:	96e78793          	addi	a5,a5,-1682 # 80010d20 <cons>
    800003ba:	0a07a703          	lw	a4,160(a5)
    800003be:	0017069b          	addiw	a3,a4,1
    800003c2:	0006861b          	sext.w	a2,a3
    800003c6:	0ad7a023          	sw	a3,160(a5)
    800003ca:	07f77713          	andi	a4,a4,127
    800003ce:	97ba                	add	a5,a5,a4
    800003d0:	4729                	li	a4,10
    800003d2:	00e78c23          	sb	a4,24(a5)
        cons.w = cons.e;
    800003d6:	00011797          	auipc	a5,0x11
    800003da:	9ec7a323          	sw	a2,-1562(a5) # 80010dbc <cons+0x9c>
        wakeup(&cons.r);
    800003de:	00011517          	auipc	a0,0x11
    800003e2:	9da50513          	addi	a0,a0,-1574 # 80010db8 <cons+0x98>
    800003e6:	6d0020ef          	jal	ra,80002ab6 <wakeup>
    800003ea:	b5d1                	j	800002ae <consoleintr+0x34>

00000000800003ec <consoleinit>:

void
consoleinit(void)
{
    800003ec:	1141                	addi	sp,sp,-16
    800003ee:	e406                	sd	ra,8(sp)
    800003f0:	e022                	sd	s0,0(sp)
    800003f2:	0800                	addi	s0,sp,16
  initlock(&cons.lock, "cons");
    800003f4:	00008597          	auipc	a1,0x8
    800003f8:	c1c58593          	addi	a1,a1,-996 # 80008010 <etext+0x10>
    800003fc:	00011517          	auipc	a0,0x11
    80000400:	92450513          	addi	a0,a0,-1756 # 80010d20 <cons>
    80000404:	6e8000ef          	jal	ra,80000aec <initlock>

  uartinit();
    80000408:	3e2000ef          	jal	ra,800007ea <uartinit>

  // connect read and write system calls
  // to consoleread and consolewrite.
  devsw[CONSOLE].read = consoleread;
    8000040c:	0008b797          	auipc	a5,0x8b
    80000410:	c8478793          	addi	a5,a5,-892 # 8008b090 <devsw>
    80000414:	00000717          	auipc	a4,0x0
    80000418:	d3870713          	addi	a4,a4,-712 # 8000014c <consoleread>
    8000041c:	eb98                	sd	a4,16(a5)
  devsw[CONSOLE].write = consolewrite;
    8000041e:	00000717          	auipc	a4,0x0
    80000422:	cb270713          	addi	a4,a4,-846 # 800000d0 <consolewrite>
    80000426:	ef98                	sd	a4,24(a5)
}
    80000428:	60a2                	ld	ra,8(sp)
    8000042a:	6402                	ld	s0,0(sp)
    8000042c:	0141                	addi	sp,sp,16
    8000042e:	8082                	ret

0000000080000430 <printint>:

static char digits[] = "0123456789abcdef";

static void
printint(long long xx, int base, int sign)
{
    80000430:	7139                	addi	sp,sp,-64
    80000432:	fc06                	sd	ra,56(sp)
    80000434:	f822                	sd	s0,48(sp)
    80000436:	f426                	sd	s1,40(sp)
    80000438:	f04a                	sd	s2,32(sp)
    8000043a:	0080                	addi	s0,sp,64
  char buf[20];
  int i;
  unsigned long long x;

  if(sign && (sign = (xx < 0)))
    8000043c:	c219                	beqz	a2,80000442 <printint+0x12>
    8000043e:	06054f63          	bltz	a0,800004bc <printint+0x8c>
    x = -xx;
  else
    x = xx;
    80000442:	4881                	li	a7,0
    80000444:	fc840693          	addi	a3,s0,-56

  i = 0;
    80000448:	4781                	li	a5,0
  do {
    buf[i++] = digits[x % base];
    8000044a:	00008617          	auipc	a2,0x8
    8000044e:	bee60613          	addi	a2,a2,-1042 # 80008038 <digits>
    80000452:	883e                	mv	a6,a5
    80000454:	2785                	addiw	a5,a5,1
    80000456:	02b57733          	remu	a4,a0,a1
    8000045a:	9732                	add	a4,a4,a2
    8000045c:	00074703          	lbu	a4,0(a4)
    80000460:	00e68023          	sb	a4,0(a3)
  } while((x /= base) != 0);
    80000464:	872a                	mv	a4,a0
    80000466:	02b55533          	divu	a0,a0,a1
    8000046a:	0685                	addi	a3,a3,1
    8000046c:	feb773e3          	bgeu	a4,a1,80000452 <printint+0x22>

  if(sign)
    80000470:	00088b63          	beqz	a7,80000486 <printint+0x56>
    buf[i++] = '-';
    80000474:	fe040713          	addi	a4,s0,-32
    80000478:	97ba                	add	a5,a5,a4
    8000047a:	02d00713          	li	a4,45
    8000047e:	fee78423          	sb	a4,-24(a5)
    80000482:	0028079b          	addiw	a5,a6,2

  while(--i >= 0)
    80000486:	02f05563          	blez	a5,800004b0 <printint+0x80>
    8000048a:	fc840713          	addi	a4,s0,-56
    8000048e:	00f704b3          	add	s1,a4,a5
    80000492:	fff70913          	addi	s2,a4,-1
    80000496:	993e                	add	s2,s2,a5
    80000498:	37fd                	addiw	a5,a5,-1
    8000049a:	1782                	slli	a5,a5,0x20
    8000049c:	9381                	srli	a5,a5,0x20
    8000049e:	40f90933          	sub	s2,s2,a5
    consputc(buf[i]);
    800004a2:	fff4c503          	lbu	a0,-1(s1)
    800004a6:	da3ff0ef          	jal	ra,80000248 <consputc>
  while(--i >= 0)
    800004aa:	14fd                	addi	s1,s1,-1
    800004ac:	ff249be3          	bne	s1,s2,800004a2 <printint+0x72>
}
    800004b0:	70e2                	ld	ra,56(sp)
    800004b2:	7442                	ld	s0,48(sp)
    800004b4:	74a2                	ld	s1,40(sp)
    800004b6:	7902                	ld	s2,32(sp)
    800004b8:	6121                	addi	sp,sp,64
    800004ba:	8082                	ret
    x = -xx;
    800004bc:	40a00533          	neg	a0,a0
  if(sign && (sign = (xx < 0)))
    800004c0:	4885                	li	a7,1
    x = -xx;
    800004c2:	b749                	j	80000444 <printint+0x14>

00000000800004c4 <printf>:
}

// Print to the console.
int
printf(char *fmt, ...)
{
    800004c4:	7131                	addi	sp,sp,-192
    800004c6:	fc86                	sd	ra,120(sp)
    800004c8:	f8a2                	sd	s0,112(sp)
    800004ca:	f4a6                	sd	s1,104(sp)
    800004cc:	f0ca                	sd	s2,96(sp)
    800004ce:	ecce                	sd	s3,88(sp)
    800004d0:	e8d2                	sd	s4,80(sp)
    800004d2:	e4d6                	sd	s5,72(sp)
    800004d4:	e0da                	sd	s6,64(sp)
    800004d6:	fc5e                	sd	s7,56(sp)
    800004d8:	f862                	sd	s8,48(sp)
    800004da:	f466                	sd	s9,40(sp)
    800004dc:	f06a                	sd	s10,32(sp)
    800004de:	ec6e                	sd	s11,24(sp)
    800004e0:	0100                	addi	s0,sp,128
    800004e2:	8a2a                	mv	s4,a0
    800004e4:	e40c                	sd	a1,8(s0)
    800004e6:	e810                	sd	a2,16(s0)
    800004e8:	ec14                	sd	a3,24(s0)
    800004ea:	f018                	sd	a4,32(s0)
    800004ec:	f41c                	sd	a5,40(s0)
    800004ee:	03043823          	sd	a6,48(s0)
    800004f2:	03143c23          	sd	a7,56(s0)
  va_list ap;
  int i, cx, c0, c1, c2;
  char *s;

  if(panicking == 0)
    800004f6:	00008797          	auipc	a5,0x8
    800004fa:	7fe7a783          	lw	a5,2046(a5) # 80008cf4 <panicking>
    800004fe:	cb9d                	beqz	a5,80000534 <printf+0x70>
    acquire(&pr.lock);

  va_start(ap, fmt);
    80000500:	00840793          	addi	a5,s0,8
    80000504:	f8f43423          	sd	a5,-120(s0)
  for(i = 0; (cx = fmt[i] & 0xff) != 0; i++){
    80000508:	000a4503          	lbu	a0,0(s4)
    8000050c:	24050363          	beqz	a0,80000752 <printf+0x28e>
    80000510:	4981                	li	s3,0
    if(cx != '%'){
    80000512:	02500a93          	li	s5,37
    i++;
    c0 = fmt[i+0] & 0xff;
    c1 = c2 = 0;
    if(c0) c1 = fmt[i+1] & 0xff;
    if(c1) c2 = fmt[i+2] & 0xff;
    if(c0 == 'd'){
    80000516:	06400b13          	li	s6,100
      printint(va_arg(ap, int), 10, 1);
    } else if(c0 == 'l' && c1 == 'd'){
    8000051a:	06c00c13          	li	s8,108
      printint(va_arg(ap, uint64), 10, 1);
      i += 1;
    } else if(c0 == 'l' && c1 == 'l' && c2 == 'd'){
      printint(va_arg(ap, uint64), 10, 1);
      i += 2;
    } else if(c0 == 'u'){
    8000051e:	07500c93          	li	s9,117
      printint(va_arg(ap, uint64), 10, 0);
      i += 1;
    } else if(c0 == 'l' && c1 == 'l' && c2 == 'u'){
      printint(va_arg(ap, uint64), 10, 0);
      i += 2;
    } else if(c0 == 'x'){
    80000522:	07800d13          	li	s10,120
      printint(va_arg(ap, uint64), 16, 0);
      i += 1;
    } else if(c0 == 'l' && c1 == 'l' && c2 == 'x'){
      printint(va_arg(ap, uint64), 16, 0);
      i += 2;
    } else if(c0 == 'p'){
    80000526:	07000d93          	li	s11,112
    consputc(digits[x >> (sizeof(uint64) * 8 - 4)]);
    8000052a:	00008b97          	auipc	s7,0x8
    8000052e:	b0eb8b93          	addi	s7,s7,-1266 # 80008038 <digits>
    80000532:	a01d                	j	80000558 <printf+0x94>
    acquire(&pr.lock);
    80000534:	00011517          	auipc	a0,0x11
    80000538:	89450513          	addi	a0,a0,-1900 # 80010dc8 <pr>
    8000053c:	630000ef          	jal	ra,80000b6c <acquire>
    80000540:	b7c1                	j	80000500 <printf+0x3c>
      consputc(cx);
    80000542:	d07ff0ef          	jal	ra,80000248 <consputc>
      continue;
    80000546:	84ce                	mv	s1,s3
  for(i = 0; (cx = fmt[i] & 0xff) != 0; i++){
    80000548:	0014899b          	addiw	s3,s1,1
    8000054c:	013a07b3          	add	a5,s4,s3
    80000550:	0007c503          	lbu	a0,0(a5)
    80000554:	1e050f63          	beqz	a0,80000752 <printf+0x28e>
    if(cx != '%'){
    80000558:	ff5515e3          	bne	a0,s5,80000542 <printf+0x7e>
    i++;
    8000055c:	0019849b          	addiw	s1,s3,1
    c0 = fmt[i+0] & 0xff;
    80000560:	009a07b3          	add	a5,s4,s1
    80000564:	0007c903          	lbu	s2,0(a5)
    if(c0) c1 = fmt[i+1] & 0xff;
    80000568:	1e090563          	beqz	s2,80000752 <printf+0x28e>
    8000056c:	0017c783          	lbu	a5,1(a5)
    c1 = c2 = 0;
    80000570:	86be                	mv	a3,a5
    if(c1) c2 = fmt[i+2] & 0xff;
    80000572:	c789                	beqz	a5,8000057c <printf+0xb8>
    80000574:	009a0733          	add	a4,s4,s1
    80000578:	00274683          	lbu	a3,2(a4)
    if(c0 == 'd'){
    8000057c:	03690863          	beq	s2,s6,800005ac <printf+0xe8>
    } else if(c0 == 'l' && c1 == 'd'){
    80000580:	05890263          	beq	s2,s8,800005c4 <printf+0x100>
    } else if(c0 == 'u'){
    80000584:	0d990163          	beq	s2,s9,80000646 <printf+0x182>
    } else if(c0 == 'x'){
    80000588:	11a90863          	beq	s2,s10,80000698 <printf+0x1d4>
    } else if(c0 == 'p'){
    8000058c:	15b90163          	beq	s2,s11,800006ce <printf+0x20a>
      printptr(va_arg(ap, uint64));
    } else if(c0 == 'c'){
    80000590:	06300793          	li	a5,99
    80000594:	16f90963          	beq	s2,a5,80000706 <printf+0x242>
      consputc(va_arg(ap, uint));
    } else if(c0 == 's'){
    80000598:	07300793          	li	a5,115
    8000059c:	16f90f63          	beq	s2,a5,8000071a <printf+0x256>
      if((s = va_arg(ap, char*)) == 0)
        s = "(null)";
      for(; *s; s++)
        consputc(*s);
    } else if(c0 == '%'){
    800005a0:	03591c63          	bne	s2,s5,800005d8 <printf+0x114>
      consputc('%');
    800005a4:	8556                	mv	a0,s5
    800005a6:	ca3ff0ef          	jal	ra,80000248 <consputc>
    800005aa:	bf79                	j	80000548 <printf+0x84>
      printint(va_arg(ap, int), 10, 1);
    800005ac:	f8843783          	ld	a5,-120(s0)
    800005b0:	00878713          	addi	a4,a5,8
    800005b4:	f8e43423          	sd	a4,-120(s0)
    800005b8:	4605                	li	a2,1
    800005ba:	45a9                	li	a1,10
    800005bc:	4388                	lw	a0,0(a5)
    800005be:	e73ff0ef          	jal	ra,80000430 <printint>
    800005c2:	b759                	j	80000548 <printf+0x84>
    } else if(c0 == 'l' && c1 == 'd'){
    800005c4:	03678163          	beq	a5,s6,800005e6 <printf+0x122>
    } else if(c0 == 'l' && c1 == 'l' && c2 == 'd'){
    800005c8:	03878d63          	beq	a5,s8,80000602 <printf+0x13e>
    } else if(c0 == 'l' && c1 == 'u'){
    800005cc:	09978a63          	beq	a5,s9,80000660 <printf+0x19c>
    } else if(c0 == 'l' && c1 == 'l' && c2 == 'u'){
    800005d0:	03878b63          	beq	a5,s8,80000606 <printf+0x142>
    } else if(c0 == 'l' && c1 == 'x'){
    800005d4:	0da78f63          	beq	a5,s10,800006b2 <printf+0x1ee>
    } else if(c0 == 0){
      break;
    } else {
      // Print unknown % sequence to draw attention.
      consputc('%');
    800005d8:	8556                	mv	a0,s5
    800005da:	c6fff0ef          	jal	ra,80000248 <consputc>
      consputc(c0);
    800005de:	854a                	mv	a0,s2
    800005e0:	c69ff0ef          	jal	ra,80000248 <consputc>
    800005e4:	b795                	j	80000548 <printf+0x84>
      printint(va_arg(ap, uint64), 10, 1);
    800005e6:	f8843783          	ld	a5,-120(s0)
    800005ea:	00878713          	addi	a4,a5,8
    800005ee:	f8e43423          	sd	a4,-120(s0)
    800005f2:	4605                	li	a2,1
    800005f4:	45a9                	li	a1,10
    800005f6:	6388                	ld	a0,0(a5)
    800005f8:	e39ff0ef          	jal	ra,80000430 <printint>
      i += 1;
    800005fc:	0029849b          	addiw	s1,s3,2
    80000600:	b7a1                	j	80000548 <printf+0x84>
    } else if(c0 == 'l' && c1 == 'l' && c2 == 'd'){
    80000602:	03668463          	beq	a3,s6,8000062a <printf+0x166>
    } else if(c0 == 'l' && c1 == 'l' && c2 == 'u'){
    80000606:	07968b63          	beq	a3,s9,8000067c <printf+0x1b8>
    } else if(c0 == 'l' && c1 == 'l' && c2 == 'x'){
    8000060a:	fda697e3          	bne	a3,s10,800005d8 <printf+0x114>
      printint(va_arg(ap, uint64), 16, 0);
    8000060e:	f8843783          	ld	a5,-120(s0)
    80000612:	00878713          	addi	a4,a5,8
    80000616:	f8e43423          	sd	a4,-120(s0)
    8000061a:	4601                	li	a2,0
    8000061c:	45c1                	li	a1,16
    8000061e:	6388                	ld	a0,0(a5)
    80000620:	e11ff0ef          	jal	ra,80000430 <printint>
      i += 2;
    80000624:	0039849b          	addiw	s1,s3,3
    80000628:	b705                	j	80000548 <printf+0x84>
      printint(va_arg(ap, uint64), 10, 1);
    8000062a:	f8843783          	ld	a5,-120(s0)
    8000062e:	00878713          	addi	a4,a5,8
    80000632:	f8e43423          	sd	a4,-120(s0)
    80000636:	4605                	li	a2,1
    80000638:	45a9                	li	a1,10
    8000063a:	6388                	ld	a0,0(a5)
    8000063c:	df5ff0ef          	jal	ra,80000430 <printint>
      i += 2;
    80000640:	0039849b          	addiw	s1,s3,3
    80000644:	b711                	j	80000548 <printf+0x84>
      printint(va_arg(ap, uint32), 10, 0);
    80000646:	f8843783          	ld	a5,-120(s0)
    8000064a:	00878713          	addi	a4,a5,8
    8000064e:	f8e43423          	sd	a4,-120(s0)
    80000652:	4601                	li	a2,0
    80000654:	45a9                	li	a1,10
    80000656:	0007e503          	lwu	a0,0(a5)
    8000065a:	dd7ff0ef          	jal	ra,80000430 <printint>
    8000065e:	b5ed                	j	80000548 <printf+0x84>
      printint(va_arg(ap, uint64), 10, 0);
    80000660:	f8843783          	ld	a5,-120(s0)
    80000664:	00878713          	addi	a4,a5,8
    80000668:	f8e43423          	sd	a4,-120(s0)
    8000066c:	4601                	li	a2,0
    8000066e:	45a9                	li	a1,10
    80000670:	6388                	ld	a0,0(a5)
    80000672:	dbfff0ef          	jal	ra,80000430 <printint>
      i += 1;
    80000676:	0029849b          	addiw	s1,s3,2
    8000067a:	b5f9                	j	80000548 <printf+0x84>
      printint(va_arg(ap, uint64), 10, 0);
    8000067c:	f8843783          	ld	a5,-120(s0)
    80000680:	00878713          	addi	a4,a5,8
    80000684:	f8e43423          	sd	a4,-120(s0)
    80000688:	4601                	li	a2,0
    8000068a:	45a9                	li	a1,10
    8000068c:	6388                	ld	a0,0(a5)
    8000068e:	da3ff0ef          	jal	ra,80000430 <printint>
      i += 2;
    80000692:	0039849b          	addiw	s1,s3,3
    80000696:	bd4d                	j	80000548 <printf+0x84>
      printint(va_arg(ap, uint32), 16, 0);
    80000698:	f8843783          	ld	a5,-120(s0)
    8000069c:	00878713          	addi	a4,a5,8
    800006a0:	f8e43423          	sd	a4,-120(s0)
    800006a4:	4601                	li	a2,0
    800006a6:	45c1                	li	a1,16
    800006a8:	0007e503          	lwu	a0,0(a5)
    800006ac:	d85ff0ef          	jal	ra,80000430 <printint>
    800006b0:	bd61                	j	80000548 <printf+0x84>
      printint(va_arg(ap, uint64), 16, 0);
    800006b2:	f8843783          	ld	a5,-120(s0)
    800006b6:	00878713          	addi	a4,a5,8
    800006ba:	f8e43423          	sd	a4,-120(s0)
    800006be:	4601                	li	a2,0
    800006c0:	45c1                	li	a1,16
    800006c2:	6388                	ld	a0,0(a5)
    800006c4:	d6dff0ef          	jal	ra,80000430 <printint>
      i += 1;
    800006c8:	0029849b          	addiw	s1,s3,2
    800006cc:	bdb5                	j	80000548 <printf+0x84>
      printptr(va_arg(ap, uint64));
    800006ce:	f8843783          	ld	a5,-120(s0)
    800006d2:	00878713          	addi	a4,a5,8
    800006d6:	f8e43423          	sd	a4,-120(s0)
    800006da:	0007b983          	ld	s3,0(a5)
  consputc('0');
    800006de:	03000513          	li	a0,48
    800006e2:	b67ff0ef          	jal	ra,80000248 <consputc>
  consputc('x');
    800006e6:	856a                	mv	a0,s10
    800006e8:	b61ff0ef          	jal	ra,80000248 <consputc>
    800006ec:	4941                	li	s2,16
    consputc(digits[x >> (sizeof(uint64) * 8 - 4)]);
    800006ee:	03c9d793          	srli	a5,s3,0x3c
    800006f2:	97de                	add	a5,a5,s7
    800006f4:	0007c503          	lbu	a0,0(a5)
    800006f8:	b51ff0ef          	jal	ra,80000248 <consputc>
  for (i = 0; i < (sizeof(uint64) * 2); i++, x <<= 4)
    800006fc:	0992                	slli	s3,s3,0x4
    800006fe:	397d                	addiw	s2,s2,-1
    80000700:	fe0917e3          	bnez	s2,800006ee <printf+0x22a>
    80000704:	b591                	j	80000548 <printf+0x84>
      consputc(va_arg(ap, uint));
    80000706:	f8843783          	ld	a5,-120(s0)
    8000070a:	00878713          	addi	a4,a5,8
    8000070e:	f8e43423          	sd	a4,-120(s0)
    80000712:	4388                	lw	a0,0(a5)
    80000714:	b35ff0ef          	jal	ra,80000248 <consputc>
    80000718:	bd05                	j	80000548 <printf+0x84>
      if((s = va_arg(ap, char*)) == 0)
    8000071a:	f8843783          	ld	a5,-120(s0)
    8000071e:	00878713          	addi	a4,a5,8
    80000722:	f8e43423          	sd	a4,-120(s0)
    80000726:	0007b903          	ld	s2,0(a5)
    8000072a:	00090d63          	beqz	s2,80000744 <printf+0x280>
      for(; *s; s++)
    8000072e:	00094503          	lbu	a0,0(s2)
    80000732:	e0050be3          	beqz	a0,80000548 <printf+0x84>
        consputc(*s);
    80000736:	b13ff0ef          	jal	ra,80000248 <consputc>
      for(; *s; s++)
    8000073a:	0905                	addi	s2,s2,1
    8000073c:	00094503          	lbu	a0,0(s2)
    80000740:	f97d                	bnez	a0,80000736 <printf+0x272>
    80000742:	b519                	j	80000548 <printf+0x84>
        s = "(null)";
    80000744:	00008917          	auipc	s2,0x8
    80000748:	8d490913          	addi	s2,s2,-1836 # 80008018 <etext+0x18>
      for(; *s; s++)
    8000074c:	02800513          	li	a0,40
    80000750:	b7dd                	j	80000736 <printf+0x272>
    }

  }
  va_end(ap);

  if(panicking == 0)
    80000752:	00008797          	auipc	a5,0x8
    80000756:	5a27a783          	lw	a5,1442(a5) # 80008cf4 <panicking>
    8000075a:	c38d                	beqz	a5,8000077c <printf+0x2b8>
    release(&pr.lock);

  return 0;
}
    8000075c:	4501                	li	a0,0
    8000075e:	70e6                	ld	ra,120(sp)
    80000760:	7446                	ld	s0,112(sp)
    80000762:	74a6                	ld	s1,104(sp)
    80000764:	7906                	ld	s2,96(sp)
    80000766:	69e6                	ld	s3,88(sp)
    80000768:	6a46                	ld	s4,80(sp)
    8000076a:	6aa6                	ld	s5,72(sp)
    8000076c:	6b06                	ld	s6,64(sp)
    8000076e:	7be2                	ld	s7,56(sp)
    80000770:	7c42                	ld	s8,48(sp)
    80000772:	7ca2                	ld	s9,40(sp)
    80000774:	7d02                	ld	s10,32(sp)
    80000776:	6de2                	ld	s11,24(sp)
    80000778:	6129                	addi	sp,sp,192
    8000077a:	8082                	ret
    release(&pr.lock);
    8000077c:	00010517          	auipc	a0,0x10
    80000780:	64c50513          	addi	a0,a0,1612 # 80010dc8 <pr>
    80000784:	480000ef          	jal	ra,80000c04 <release>
  return 0;
    80000788:	bfd1                	j	8000075c <printf+0x298>

000000008000078a <panic>:

void
panic(char *s)
{
    8000078a:	1101                	addi	sp,sp,-32
    8000078c:	ec06                	sd	ra,24(sp)
    8000078e:	e822                	sd	s0,16(sp)
    80000790:	e426                	sd	s1,8(sp)
    80000792:	e04a                	sd	s2,0(sp)
    80000794:	1000                	addi	s0,sp,32
    80000796:	84aa                	mv	s1,a0
  panicking = 1;
    80000798:	4905                	li	s2,1
    8000079a:	00008797          	auipc	a5,0x8
    8000079e:	5527ad23          	sw	s2,1370(a5) # 80008cf4 <panicking>
  printf("panic: ");
    800007a2:	00008517          	auipc	a0,0x8
    800007a6:	87e50513          	addi	a0,a0,-1922 # 80008020 <etext+0x20>
    800007aa:	d1bff0ef          	jal	ra,800004c4 <printf>
  printf("%s\n", s);
    800007ae:	85a6                	mv	a1,s1
    800007b0:	00008517          	auipc	a0,0x8
    800007b4:	87850513          	addi	a0,a0,-1928 # 80008028 <etext+0x28>
    800007b8:	d0dff0ef          	jal	ra,800004c4 <printf>
  panicked = 1; // freeze uart output from other CPUs
    800007bc:	00008797          	auipc	a5,0x8
    800007c0:	5327aa23          	sw	s2,1332(a5) # 80008cf0 <panicked>
  for(;;)
    800007c4:	a001                	j	800007c4 <panic+0x3a>

00000000800007c6 <printfinit>:
    ;
}

void
printfinit(void)
{
    800007c6:	1141                	addi	sp,sp,-16
    800007c8:	e406                	sd	ra,8(sp)
    800007ca:	e022                	sd	s0,0(sp)
    800007cc:	0800                	addi	s0,sp,16
  initlock(&pr.lock, "pr");
    800007ce:	00008597          	auipc	a1,0x8
    800007d2:	86258593          	addi	a1,a1,-1950 # 80008030 <etext+0x30>
    800007d6:	00010517          	auipc	a0,0x10
    800007da:	5f250513          	addi	a0,a0,1522 # 80010dc8 <pr>
    800007de:	30e000ef          	jal	ra,80000aec <initlock>
}
    800007e2:	60a2                	ld	ra,8(sp)
    800007e4:	6402                	ld	s0,0(sp)
    800007e6:	0141                	addi	sp,sp,16
    800007e8:	8082                	ret

00000000800007ea <uartinit>:
extern volatile int panicking; // from printf.c
extern volatile int panicked; // from printf.c

void
uartinit(void)
{
    800007ea:	1141                	addi	sp,sp,-16
    800007ec:	e406                	sd	ra,8(sp)
    800007ee:	e022                	sd	s0,0(sp)
    800007f0:	0800                	addi	s0,sp,16
  // disable interrupts.
  WriteReg(IER, 0x00);
    800007f2:	100007b7          	lui	a5,0x10000
    800007f6:	000780a3          	sb	zero,1(a5) # 10000001 <_entry-0x6fffffff>

  // special mode to set baud rate.
  WriteReg(LCR, LCR_BAUD_LATCH);
    800007fa:	f8000713          	li	a4,-128
    800007fe:	00e781a3          	sb	a4,3(a5)

  // LSB for baud rate of 38.4K.
  WriteReg(0, 0x03);
    80000802:	470d                	li	a4,3
    80000804:	00e78023          	sb	a4,0(a5)

  // MSB for baud rate of 38.4K.
  WriteReg(1, 0x00);
    80000808:	000780a3          	sb	zero,1(a5)

  // leave set-baud mode,
  // and set word length to 8 bits, no parity.
  WriteReg(LCR, LCR_EIGHT_BITS);
    8000080c:	00e781a3          	sb	a4,3(a5)

  // reset and enable FIFOs.
  WriteReg(FCR, FCR_FIFO_ENABLE | FCR_FIFO_CLEAR);
    80000810:	469d                	li	a3,7
    80000812:	00d78123          	sb	a3,2(a5)

  // enable transmit and receive interrupts.
  WriteReg(IER, IER_TX_ENABLE | IER_RX_ENABLE);
    80000816:	00e780a3          	sb	a4,1(a5)

  initlock(&tx_lock, "uart");
    8000081a:	00008597          	auipc	a1,0x8
    8000081e:	83658593          	addi	a1,a1,-1994 # 80008050 <digits+0x18>
    80000822:	00010517          	auipc	a0,0x10
    80000826:	5be50513          	addi	a0,a0,1470 # 80010de0 <tx_lock>
    8000082a:	2c2000ef          	jal	ra,80000aec <initlock>
}
    8000082e:	60a2                	ld	ra,8(sp)
    80000830:	6402                	ld	s0,0(sp)
    80000832:	0141                	addi	sp,sp,16
    80000834:	8082                	ret

0000000080000836 <uartwrite>:
// transmit buf[] to the uart. it blocks if the
// uart is busy, so it cannot be called from
// interrupts, only from write() system calls.
void
uartwrite(char buf[], int n)
{
    80000836:	715d                	addi	sp,sp,-80
    80000838:	e486                	sd	ra,72(sp)
    8000083a:	e0a2                	sd	s0,64(sp)
    8000083c:	fc26                	sd	s1,56(sp)
    8000083e:	f84a                	sd	s2,48(sp)
    80000840:	f44e                	sd	s3,40(sp)
    80000842:	f052                	sd	s4,32(sp)
    80000844:	ec56                	sd	s5,24(sp)
    80000846:	e85a                	sd	s6,16(sp)
    80000848:	e45e                	sd	s7,8(sp)
    8000084a:	0880                	addi	s0,sp,80
    8000084c:	84aa                	mv	s1,a0
    8000084e:	8aae                	mv	s5,a1
  acquire(&tx_lock);
    80000850:	00010517          	auipc	a0,0x10
    80000854:	59050513          	addi	a0,a0,1424 # 80010de0 <tx_lock>
    80000858:	314000ef          	jal	ra,80000b6c <acquire>

  int i = 0;
  while(i < n){ 
    8000085c:	05505b63          	blez	s5,800008b2 <uartwrite+0x7c>
    80000860:	8a26                	mv	s4,s1
    80000862:	0485                	addi	s1,s1,1
    80000864:	3afd                	addiw	s5,s5,-1
    80000866:	1a82                	slli	s5,s5,0x20
    80000868:	020ada93          	srli	s5,s5,0x20
    8000086c:	9aa6                	add	s5,s5,s1
    while(tx_busy != 0){
    8000086e:	00008497          	auipc	s1,0x8
    80000872:	48e48493          	addi	s1,s1,1166 # 80008cfc <tx_busy>
      // wait for a UART transmit-complete interrupt
      // to set tx_busy to 0.
      sleep(&tx_chan, &tx_lock);
    80000876:	00010997          	auipc	s3,0x10
    8000087a:	56a98993          	addi	s3,s3,1386 # 80010de0 <tx_lock>
    8000087e:	00008917          	auipc	s2,0x8
    80000882:	47a90913          	addi	s2,s2,1146 # 80008cf8 <tx_chan>
    }   
      
    WriteReg(THR, buf[i]);
    80000886:	10000bb7          	lui	s7,0x10000
    i += 1;
    tx_busy = 1;
    8000088a:	4b05                	li	s6,1
    8000088c:	a005                	j	800008ac <uartwrite+0x76>
      sleep(&tx_chan, &tx_lock);
    8000088e:	85ce                	mv	a1,s3
    80000890:	854a                	mv	a0,s2
    80000892:	1d8020ef          	jal	ra,80002a6a <sleep>
    while(tx_busy != 0){
    80000896:	409c                	lw	a5,0(s1)
    80000898:	fbfd                	bnez	a5,8000088e <uartwrite+0x58>
    WriteReg(THR, buf[i]);
    8000089a:	000a4783          	lbu	a5,0(s4)
    8000089e:	00fb8023          	sb	a5,0(s7) # 10000000 <_entry-0x70000000>
    tx_busy = 1;
    800008a2:	0164a023          	sw	s6,0(s1)
  while(i < n){ 
    800008a6:	0a05                	addi	s4,s4,1
    800008a8:	015a0563          	beq	s4,s5,800008b2 <uartwrite+0x7c>
    while(tx_busy != 0){
    800008ac:	409c                	lw	a5,0(s1)
    800008ae:	f3e5                	bnez	a5,8000088e <uartwrite+0x58>
    800008b0:	b7ed                	j	8000089a <uartwrite+0x64>
  }

  release(&tx_lock);
    800008b2:	00010517          	auipc	a0,0x10
    800008b6:	52e50513          	addi	a0,a0,1326 # 80010de0 <tx_lock>
    800008ba:	34a000ef          	jal	ra,80000c04 <release>
}
    800008be:	60a6                	ld	ra,72(sp)
    800008c0:	6406                	ld	s0,64(sp)
    800008c2:	74e2                	ld	s1,56(sp)
    800008c4:	7942                	ld	s2,48(sp)
    800008c6:	79a2                	ld	s3,40(sp)
    800008c8:	7a02                	ld	s4,32(sp)
    800008ca:	6ae2                	ld	s5,24(sp)
    800008cc:	6b42                	ld	s6,16(sp)
    800008ce:	6ba2                	ld	s7,8(sp)
    800008d0:	6161                	addi	sp,sp,80
    800008d2:	8082                	ret

00000000800008d4 <uartputc_sync>:
// interrupts, for use by kernel printf() and
// to echo characters. it spins waiting for the uart's
// output register to be empty.
void
uartputc_sync(int c)
{
    800008d4:	1101                	addi	sp,sp,-32
    800008d6:	ec06                	sd	ra,24(sp)
    800008d8:	e822                	sd	s0,16(sp)
    800008da:	e426                	sd	s1,8(sp)
    800008dc:	1000                	addi	s0,sp,32
    800008de:	84aa                	mv	s1,a0
  if(panicking == 0)
    800008e0:	00008797          	auipc	a5,0x8
    800008e4:	4147a783          	lw	a5,1044(a5) # 80008cf4 <panicking>
    800008e8:	cb89                	beqz	a5,800008fa <uartputc_sync+0x26>
    push_off();

  if(panicked){
    800008ea:	00008797          	auipc	a5,0x8
    800008ee:	4067a783          	lw	a5,1030(a5) # 80008cf0 <panicked>
    for(;;)
      ;
  }

  // wait for Transmit Holding Empty to be set in LSR.
  while((ReadReg(LSR) & LSR_TX_IDLE) == 0)
    800008f2:	10000737          	lui	a4,0x10000
  if(panicked){
    800008f6:	c789                	beqz	a5,80000900 <uartputc_sync+0x2c>
    for(;;)
    800008f8:	a001                	j	800008f8 <uartputc_sync+0x24>
    push_off();
    800008fa:	232000ef          	jal	ra,80000b2c <push_off>
    800008fe:	b7f5                	j	800008ea <uartputc_sync+0x16>
  while((ReadReg(LSR) & LSR_TX_IDLE) == 0)
    80000900:	00574783          	lbu	a5,5(a4) # 10000005 <_entry-0x6ffffffb>
    80000904:	0207f793          	andi	a5,a5,32
    80000908:	dfe5                	beqz	a5,80000900 <uartputc_sync+0x2c>
    ;
  WriteReg(THR, c);
    8000090a:	0ff4f513          	andi	a0,s1,255
    8000090e:	100007b7          	lui	a5,0x10000
    80000912:	00a78023          	sb	a0,0(a5) # 10000000 <_entry-0x70000000>

  if(panicking == 0)
    80000916:	00008797          	auipc	a5,0x8
    8000091a:	3de7a783          	lw	a5,990(a5) # 80008cf4 <panicking>
    8000091e:	c791                	beqz	a5,8000092a <uartputc_sync+0x56>
    pop_off();
}
    80000920:	60e2                	ld	ra,24(sp)
    80000922:	6442                	ld	s0,16(sp)
    80000924:	64a2                	ld	s1,8(sp)
    80000926:	6105                	addi	sp,sp,32
    80000928:	8082                	ret
    pop_off();
    8000092a:	286000ef          	jal	ra,80000bb0 <pop_off>
}
    8000092e:	bfcd                	j	80000920 <uartputc_sync+0x4c>

0000000080000930 <uartgetc>:

// read one input character from the UART.
// return -1 if none is waiting.
int
uartgetc(void)
{
    80000930:	1141                	addi	sp,sp,-16
    80000932:	e422                	sd	s0,8(sp)
    80000934:	0800                	addi	s0,sp,16
  if(ReadReg(LSR) & LSR_RX_READY){
    80000936:	100007b7          	lui	a5,0x10000
    8000093a:	0057c783          	lbu	a5,5(a5) # 10000005 <_entry-0x6ffffffb>
    8000093e:	8b85                	andi	a5,a5,1
    80000940:	cb91                	beqz	a5,80000954 <uartgetc+0x24>
    // input data is ready.
    return ReadReg(RHR);
    80000942:	100007b7          	lui	a5,0x10000
    80000946:	0007c503          	lbu	a0,0(a5) # 10000000 <_entry-0x70000000>
    8000094a:	0ff57513          	andi	a0,a0,255
  } else {
    return -1;
  }
}
    8000094e:	6422                	ld	s0,8(sp)
    80000950:	0141                	addi	sp,sp,16
    80000952:	8082                	ret
    return -1;
    80000954:	557d                	li	a0,-1
    80000956:	bfe5                	j	8000094e <uartgetc+0x1e>

0000000080000958 <uartintr>:
// handle a uart interrupt, raised because input has
// arrived, or the uart is ready for more output, or
// both. called from devintr().
void
uartintr(void)
{
    80000958:	1101                	addi	sp,sp,-32
    8000095a:	ec06                	sd	ra,24(sp)
    8000095c:	e822                	sd	s0,16(sp)
    8000095e:	e426                	sd	s1,8(sp)
    80000960:	1000                	addi	s0,sp,32
  ReadReg(ISR); // acknowledge the interrupt
    80000962:	100004b7          	lui	s1,0x10000
    80000966:	0024c783          	lbu	a5,2(s1) # 10000002 <_entry-0x6ffffffe>

  acquire(&tx_lock);
    8000096a:	00010517          	auipc	a0,0x10
    8000096e:	47650513          	addi	a0,a0,1142 # 80010de0 <tx_lock>
    80000972:	1fa000ef          	jal	ra,80000b6c <acquire>
  if(ReadReg(LSR) & LSR_TX_IDLE){
    80000976:	0054c783          	lbu	a5,5(s1)
    8000097a:	0207f793          	andi	a5,a5,32
    8000097e:	eb89                	bnez	a5,80000990 <uartintr+0x38>
    // UART finished transmitting; wake up sending thread.
    tx_busy = 0;
    wakeup(&tx_chan);
  }
  release(&tx_lock);
    80000980:	00010517          	auipc	a0,0x10
    80000984:	46050513          	addi	a0,a0,1120 # 80010de0 <tx_lock>
    80000988:	27c000ef          	jal	ra,80000c04 <release>

  // read and process incoming characters.
  while(1){
    int c = uartgetc();
    if(c == -1)
    8000098c:	54fd                	li	s1,-1
    8000098e:	a831                	j	800009aa <uartintr+0x52>
    tx_busy = 0;
    80000990:	00008797          	auipc	a5,0x8
    80000994:	3607a623          	sw	zero,876(a5) # 80008cfc <tx_busy>
    wakeup(&tx_chan);
    80000998:	00008517          	auipc	a0,0x8
    8000099c:	36050513          	addi	a0,a0,864 # 80008cf8 <tx_chan>
    800009a0:	116020ef          	jal	ra,80002ab6 <wakeup>
    800009a4:	bff1                	j	80000980 <uartintr+0x28>
      break;
    consoleintr(c);
    800009a6:	8d5ff0ef          	jal	ra,8000027a <consoleintr>
    int c = uartgetc();
    800009aa:	f87ff0ef          	jal	ra,80000930 <uartgetc>
    if(c == -1)
    800009ae:	fe951ce3          	bne	a0,s1,800009a6 <uartintr+0x4e>
  }
}
    800009b2:	60e2                	ld	ra,24(sp)
    800009b4:	6442                	ld	s0,16(sp)
    800009b6:	64a2                	ld	s1,8(sp)
    800009b8:	6105                	addi	sp,sp,32
    800009ba:	8082                	ret

00000000800009bc <kfree>:
// which normally should have been returned by a
// call to kalloc().  (The exception is when
// initializing the allocator; see kinit above.)
void
kfree(void *pa)
{
    800009bc:	1101                	addi	sp,sp,-32
    800009be:	ec06                	sd	ra,24(sp)
    800009c0:	e822                	sd	s0,16(sp)
    800009c2:	e426                	sd	s1,8(sp)
    800009c4:	e04a                	sd	s2,0(sp)
    800009c6:	1000                	addi	s0,sp,32
  struct run *r;

  if(((uint64)pa % PGSIZE) != 0 || (char*)pa < end || (uint64)pa >= PHYSTOP)
    800009c8:	03451793          	slli	a5,a0,0x34
    800009cc:	e7a9                	bnez	a5,80000a16 <kfree+0x5a>
    800009ce:	84aa                	mv	s1,a0
    800009d0:	0008c797          	auipc	a5,0x8c
    800009d4:	85878793          	addi	a5,a5,-1960 # 8008c228 <end>
    800009d8:	02f56f63          	bltu	a0,a5,80000a16 <kfree+0x5a>
    800009dc:	47c5                	li	a5,17
    800009de:	07ee                	slli	a5,a5,0x1b
    800009e0:	02f57b63          	bgeu	a0,a5,80000a16 <kfree+0x5a>
    panic("kfree");

  // Fill with junk to catch dangling refs.
  memset(pa, 1, PGSIZE);
    800009e4:	6605                	lui	a2,0x1
    800009e6:	4585                	li	a1,1
    800009e8:	258000ef          	jal	ra,80000c40 <memset>

  r = (struct run*)pa;

  acquire(&kmem.lock);
    800009ec:	00010917          	auipc	s2,0x10
    800009f0:	40c90913          	addi	s2,s2,1036 # 80010df8 <kmem>
    800009f4:	854a                	mv	a0,s2
    800009f6:	176000ef          	jal	ra,80000b6c <acquire>
  r->next = kmem.freelist;
    800009fa:	01893783          	ld	a5,24(s2)
    800009fe:	e09c                	sd	a5,0(s1)
  kmem.freelist = r;
    80000a00:	00993c23          	sd	s1,24(s2)
  release(&kmem.lock);
    80000a04:	854a                	mv	a0,s2
    80000a06:	1fe000ef          	jal	ra,80000c04 <release>
}
    80000a0a:	60e2                	ld	ra,24(sp)
    80000a0c:	6442                	ld	s0,16(sp)
    80000a0e:	64a2                	ld	s1,8(sp)
    80000a10:	6902                	ld	s2,0(sp)
    80000a12:	6105                	addi	sp,sp,32
    80000a14:	8082                	ret
    panic("kfree");
    80000a16:	00007517          	auipc	a0,0x7
    80000a1a:	64250513          	addi	a0,a0,1602 # 80008058 <digits+0x20>
    80000a1e:	d6dff0ef          	jal	ra,8000078a <panic>

0000000080000a22 <freerange>:
{
    80000a22:	7179                	addi	sp,sp,-48
    80000a24:	f406                	sd	ra,40(sp)
    80000a26:	f022                	sd	s0,32(sp)
    80000a28:	ec26                	sd	s1,24(sp)
    80000a2a:	e84a                	sd	s2,16(sp)
    80000a2c:	e44e                	sd	s3,8(sp)
    80000a2e:	e052                	sd	s4,0(sp)
    80000a30:	1800                	addi	s0,sp,48
  p = (char*)PGROUNDUP((uint64)pa_start);
    80000a32:	6785                	lui	a5,0x1
    80000a34:	fff78493          	addi	s1,a5,-1 # fff <_entry-0x7ffff001>
    80000a38:	94aa                	add	s1,s1,a0
    80000a3a:	757d                	lui	a0,0xfffff
    80000a3c:	8ce9                	and	s1,s1,a0
  for(; p + PGSIZE <= (char*)pa_end; p += PGSIZE)
    80000a3e:	94be                	add	s1,s1,a5
    80000a40:	0095ec63          	bltu	a1,s1,80000a58 <freerange+0x36>
    80000a44:	892e                	mv	s2,a1
    kfree(p);
    80000a46:	7a7d                	lui	s4,0xfffff
  for(; p + PGSIZE <= (char*)pa_end; p += PGSIZE)
    80000a48:	6985                	lui	s3,0x1
    kfree(p);
    80000a4a:	01448533          	add	a0,s1,s4
    80000a4e:	f6fff0ef          	jal	ra,800009bc <kfree>
  for(; p + PGSIZE <= (char*)pa_end; p += PGSIZE)
    80000a52:	94ce                	add	s1,s1,s3
    80000a54:	fe997be3          	bgeu	s2,s1,80000a4a <freerange+0x28>
}
    80000a58:	70a2                	ld	ra,40(sp)
    80000a5a:	7402                	ld	s0,32(sp)
    80000a5c:	64e2                	ld	s1,24(sp)
    80000a5e:	6942                	ld	s2,16(sp)
    80000a60:	69a2                	ld	s3,8(sp)
    80000a62:	6a02                	ld	s4,0(sp)
    80000a64:	6145                	addi	sp,sp,48
    80000a66:	8082                	ret

0000000080000a68 <kinit>:
{
    80000a68:	1141                	addi	sp,sp,-16
    80000a6a:	e406                	sd	ra,8(sp)
    80000a6c:	e022                	sd	s0,0(sp)
    80000a6e:	0800                	addi	s0,sp,16
  initlock(&kmem.lock, "kmem");
    80000a70:	00007597          	auipc	a1,0x7
    80000a74:	5f058593          	addi	a1,a1,1520 # 80008060 <digits+0x28>
    80000a78:	00010517          	auipc	a0,0x10
    80000a7c:	38050513          	addi	a0,a0,896 # 80010df8 <kmem>
    80000a80:	06c000ef          	jal	ra,80000aec <initlock>
  freerange(end, (void*)PHYSTOP);
    80000a84:	45c5                	li	a1,17
    80000a86:	05ee                	slli	a1,a1,0x1b
    80000a88:	0008b517          	auipc	a0,0x8b
    80000a8c:	7a050513          	addi	a0,a0,1952 # 8008c228 <end>
    80000a90:	f93ff0ef          	jal	ra,80000a22 <freerange>
}
    80000a94:	60a2                	ld	ra,8(sp)
    80000a96:	6402                	ld	s0,0(sp)
    80000a98:	0141                	addi	sp,sp,16
    80000a9a:	8082                	ret

0000000080000a9c <kalloc>:
// Allocate one 4096-byte page of physical memory.
// Returns a pointer that the kernel can use.
// Returns 0 if the memory cannot be allocated.
void *
kalloc(void)
{
    80000a9c:	1101                	addi	sp,sp,-32
    80000a9e:	ec06                	sd	ra,24(sp)
    80000aa0:	e822                	sd	s0,16(sp)
    80000aa2:	e426                	sd	s1,8(sp)
    80000aa4:	1000                	addi	s0,sp,32
  struct run *r;

  acquire(&kmem.lock);
    80000aa6:	00010497          	auipc	s1,0x10
    80000aaa:	35248493          	addi	s1,s1,850 # 80010df8 <kmem>
    80000aae:	8526                	mv	a0,s1
    80000ab0:	0bc000ef          	jal	ra,80000b6c <acquire>
  r = kmem.freelist;
    80000ab4:	6c84                	ld	s1,24(s1)
  if(r)
    80000ab6:	c485                	beqz	s1,80000ade <kalloc+0x42>
    kmem.freelist = r->next;
    80000ab8:	609c                	ld	a5,0(s1)
    80000aba:	00010517          	auipc	a0,0x10
    80000abe:	33e50513          	addi	a0,a0,830 # 80010df8 <kmem>
    80000ac2:	ed1c                	sd	a5,24(a0)
  release(&kmem.lock);
    80000ac4:	140000ef          	jal	ra,80000c04 <release>

  if(r)
    memset((char*)r, 5, PGSIZE); // fill with junk
    80000ac8:	6605                	lui	a2,0x1
    80000aca:	4595                	li	a1,5
    80000acc:	8526                	mv	a0,s1
    80000ace:	172000ef          	jal	ra,80000c40 <memset>
  return (void*)r;
}
    80000ad2:	8526                	mv	a0,s1
    80000ad4:	60e2                	ld	ra,24(sp)
    80000ad6:	6442                	ld	s0,16(sp)
    80000ad8:	64a2                	ld	s1,8(sp)
    80000ada:	6105                	addi	sp,sp,32
    80000adc:	8082                	ret
  release(&kmem.lock);
    80000ade:	00010517          	auipc	a0,0x10
    80000ae2:	31a50513          	addi	a0,a0,794 # 80010df8 <kmem>
    80000ae6:	11e000ef          	jal	ra,80000c04 <release>
  if(r)
    80000aea:	b7e5                	j	80000ad2 <kalloc+0x36>

0000000080000aec <initlock>:
#include "proc.h"
#include "defs.h"

void
initlock(struct spinlock *lk, char *name)
{
    80000aec:	1141                	addi	sp,sp,-16
    80000aee:	e422                	sd	s0,8(sp)
    80000af0:	0800                	addi	s0,sp,16
  lk->name = name;
    80000af2:	e50c                	sd	a1,8(a0)
  lk->locked = 0;
    80000af4:	00052023          	sw	zero,0(a0)
  lk->cpu = 0;
    80000af8:	00053823          	sd	zero,16(a0)
}
    80000afc:	6422                	ld	s0,8(sp)
    80000afe:	0141                	addi	sp,sp,16
    80000b00:	8082                	ret

0000000080000b02 <holding>:
// Interrupts must be off.
int
holding(struct spinlock *lk)
{
  int r;
  r = (lk->locked && lk->cpu == mycpu());
    80000b02:	411c                	lw	a5,0(a0)
    80000b04:	e399                	bnez	a5,80000b0a <holding+0x8>
    80000b06:	4501                	li	a0,0
  return r;
}
    80000b08:	8082                	ret
{
    80000b0a:	1101                	addi	sp,sp,-32
    80000b0c:	ec06                	sd	ra,24(sp)
    80000b0e:	e822                	sd	s0,16(sp)
    80000b10:	e426                	sd	s1,8(sp)
    80000b12:	1000                	addi	s0,sp,32
  r = (lk->locked && lk->cpu == mycpu());
    80000b14:	6904                	ld	s1,16(a0)
    80000b16:	097010ef          	jal	ra,800023ac <mycpu>
    80000b1a:	40a48533          	sub	a0,s1,a0
    80000b1e:	00153513          	seqz	a0,a0
}
    80000b22:	60e2                	ld	ra,24(sp)
    80000b24:	6442                	ld	s0,16(sp)
    80000b26:	64a2                	ld	s1,8(sp)
    80000b28:	6105                	addi	sp,sp,32
    80000b2a:	8082                	ret

0000000080000b2c <push_off>:
// it takes two pop_off()s to undo two push_off()s.  Also, if interrupts
// are initially off, then push_off, pop_off leaves them off.

void
push_off(void)
{
    80000b2c:	1101                	addi	sp,sp,-32
    80000b2e:	ec06                	sd	ra,24(sp)
    80000b30:	e822                	sd	s0,16(sp)
    80000b32:	e426                	sd	s1,8(sp)
    80000b34:	1000                	addi	s0,sp,32
  asm volatile("csrr %0, sstatus" : "=r" (x) );
    80000b36:	100024f3          	csrr	s1,sstatus
    80000b3a:	100027f3          	csrr	a5,sstatus
  w_sstatus(r_sstatus() & ~SSTATUS_SIE);
    80000b3e:	9bf5                	andi	a5,a5,-3
  asm volatile("csrw sstatus, %0" : : "r" (x));
    80000b40:	10079073          	csrw	sstatus,a5

  // disable interrupts to prevent an involuntary context
  // switch while using mycpu().
  intr_off();

  if(mycpu()->noff == 0)
    80000b44:	069010ef          	jal	ra,800023ac <mycpu>
    80000b48:	5d3c                	lw	a5,120(a0)
    80000b4a:	cb99                	beqz	a5,80000b60 <push_off+0x34>
    mycpu()->intena = old;
  mycpu()->noff += 1;
    80000b4c:	061010ef          	jal	ra,800023ac <mycpu>
    80000b50:	5d3c                	lw	a5,120(a0)
    80000b52:	2785                	addiw	a5,a5,1
    80000b54:	dd3c                	sw	a5,120(a0)
}
    80000b56:	60e2                	ld	ra,24(sp)
    80000b58:	6442                	ld	s0,16(sp)
    80000b5a:	64a2                	ld	s1,8(sp)
    80000b5c:	6105                	addi	sp,sp,32
    80000b5e:	8082                	ret
    mycpu()->intena = old;
    80000b60:	04d010ef          	jal	ra,800023ac <mycpu>
  return (x & SSTATUS_SIE) != 0;
    80000b64:	8085                	srli	s1,s1,0x1
    80000b66:	8885                	andi	s1,s1,1
    80000b68:	dd64                	sw	s1,124(a0)
    80000b6a:	b7cd                	j	80000b4c <push_off+0x20>

0000000080000b6c <acquire>:
{
    80000b6c:	1101                	addi	sp,sp,-32
    80000b6e:	ec06                	sd	ra,24(sp)
    80000b70:	e822                	sd	s0,16(sp)
    80000b72:	e426                	sd	s1,8(sp)
    80000b74:	1000                	addi	s0,sp,32
    80000b76:	84aa                	mv	s1,a0
  push_off(); // disable interrupts to avoid deadlock.
    80000b78:	fb5ff0ef          	jal	ra,80000b2c <push_off>
  if(holding(lk))
    80000b7c:	8526                	mv	a0,s1
    80000b7e:	f85ff0ef          	jal	ra,80000b02 <holding>
  while(__sync_lock_test_and_set(&lk->locked, 1) != 0)
    80000b82:	4705                	li	a4,1
  if(holding(lk))
    80000b84:	e105                	bnez	a0,80000ba4 <acquire+0x38>
  while(__sync_lock_test_and_set(&lk->locked, 1) != 0)
    80000b86:	87ba                	mv	a5,a4
    80000b88:	0cf4a7af          	amoswap.w.aq	a5,a5,(s1)
    80000b8c:	2781                	sext.w	a5,a5
    80000b8e:	ffe5                	bnez	a5,80000b86 <acquire+0x1a>
  __sync_synchronize();
    80000b90:	0ff0000f          	fence
  lk->cpu = mycpu();
    80000b94:	019010ef          	jal	ra,800023ac <mycpu>
    80000b98:	e888                	sd	a0,16(s1)
}
    80000b9a:	60e2                	ld	ra,24(sp)
    80000b9c:	6442                	ld	s0,16(sp)
    80000b9e:	64a2                	ld	s1,8(sp)
    80000ba0:	6105                	addi	sp,sp,32
    80000ba2:	8082                	ret
    panic("acquire");
    80000ba4:	00007517          	auipc	a0,0x7
    80000ba8:	4c450513          	addi	a0,a0,1220 # 80008068 <digits+0x30>
    80000bac:	bdfff0ef          	jal	ra,8000078a <panic>

0000000080000bb0 <pop_off>:

void
pop_off(void)
{
    80000bb0:	1141                	addi	sp,sp,-16
    80000bb2:	e406                	sd	ra,8(sp)
    80000bb4:	e022                	sd	s0,0(sp)
    80000bb6:	0800                	addi	s0,sp,16
  struct cpu *c = mycpu();
    80000bb8:	7f4010ef          	jal	ra,800023ac <mycpu>
  asm volatile("csrr %0, sstatus" : "=r" (x) );
    80000bbc:	100027f3          	csrr	a5,sstatus
  return (x & SSTATUS_SIE) != 0;
    80000bc0:	8b89                	andi	a5,a5,2
  if(intr_get())
    80000bc2:	e78d                	bnez	a5,80000bec <pop_off+0x3c>
    panic("pop_off - interruptible");
  if(c->noff < 1)
    80000bc4:	5d3c                	lw	a5,120(a0)
    80000bc6:	02f05963          	blez	a5,80000bf8 <pop_off+0x48>
    panic("pop_off");
  c->noff -= 1;
    80000bca:	37fd                	addiw	a5,a5,-1
    80000bcc:	0007871b          	sext.w	a4,a5
    80000bd0:	dd3c                	sw	a5,120(a0)
  if(c->noff == 0 && c->intena)
    80000bd2:	eb09                	bnez	a4,80000be4 <pop_off+0x34>
    80000bd4:	5d7c                	lw	a5,124(a0)
    80000bd6:	c799                	beqz	a5,80000be4 <pop_off+0x34>
  asm volatile("csrr %0, sstatus" : "=r" (x) );
    80000bd8:	100027f3          	csrr	a5,sstatus
  w_sstatus(r_sstatus() | SSTATUS_SIE);
    80000bdc:	0027e793          	ori	a5,a5,2
  asm volatile("csrw sstatus, %0" : : "r" (x));
    80000be0:	10079073          	csrw	sstatus,a5
    intr_on();
}
    80000be4:	60a2                	ld	ra,8(sp)
    80000be6:	6402                	ld	s0,0(sp)
    80000be8:	0141                	addi	sp,sp,16
    80000bea:	8082                	ret
    panic("pop_off - interruptible");
    80000bec:	00007517          	auipc	a0,0x7
    80000bf0:	48450513          	addi	a0,a0,1156 # 80008070 <digits+0x38>
    80000bf4:	b97ff0ef          	jal	ra,8000078a <panic>
    panic("pop_off");
    80000bf8:	00007517          	auipc	a0,0x7
    80000bfc:	49050513          	addi	a0,a0,1168 # 80008088 <digits+0x50>
    80000c00:	b8bff0ef          	jal	ra,8000078a <panic>

0000000080000c04 <release>:
{
    80000c04:	1101                	addi	sp,sp,-32
    80000c06:	ec06                	sd	ra,24(sp)
    80000c08:	e822                	sd	s0,16(sp)
    80000c0a:	e426                	sd	s1,8(sp)
    80000c0c:	1000                	addi	s0,sp,32
    80000c0e:	84aa                	mv	s1,a0
  if(!holding(lk))
    80000c10:	ef3ff0ef          	jal	ra,80000b02 <holding>
    80000c14:	c105                	beqz	a0,80000c34 <release+0x30>
  lk->cpu = 0;
    80000c16:	0004b823          	sd	zero,16(s1)
  __sync_synchronize();
    80000c1a:	0ff0000f          	fence
  __sync_lock_release(&lk->locked);
    80000c1e:	0f50000f          	fence	iorw,ow
    80000c22:	0804a02f          	amoswap.w	zero,zero,(s1)
  pop_off();
    80000c26:	f8bff0ef          	jal	ra,80000bb0 <pop_off>
}
    80000c2a:	60e2                	ld	ra,24(sp)
    80000c2c:	6442                	ld	s0,16(sp)
    80000c2e:	64a2                	ld	s1,8(sp)
    80000c30:	6105                	addi	sp,sp,32
    80000c32:	8082                	ret
    panic("release");
    80000c34:	00007517          	auipc	a0,0x7
    80000c38:	45c50513          	addi	a0,a0,1116 # 80008090 <digits+0x58>
    80000c3c:	b4fff0ef          	jal	ra,8000078a <panic>

0000000080000c40 <memset>:
#include "types.h"

void*
memset(void *dst, int c, uint n)
{
    80000c40:	1141                	addi	sp,sp,-16
    80000c42:	e422                	sd	s0,8(sp)
    80000c44:	0800                	addi	s0,sp,16
  char *cdst = (char *) dst;
  int i;
  for(i = 0; i < n; i++){
    80000c46:	ca19                	beqz	a2,80000c5c <memset+0x1c>
    80000c48:	87aa                	mv	a5,a0
    80000c4a:	1602                	slli	a2,a2,0x20
    80000c4c:	9201                	srli	a2,a2,0x20
    80000c4e:	00a60733          	add	a4,a2,a0
    cdst[i] = c;
    80000c52:	00b78023          	sb	a1,0(a5)
  for(i = 0; i < n; i++){
    80000c56:	0785                	addi	a5,a5,1
    80000c58:	fee79de3          	bne	a5,a4,80000c52 <memset+0x12>
  }
  return dst;
}
    80000c5c:	6422                	ld	s0,8(sp)
    80000c5e:	0141                	addi	sp,sp,16
    80000c60:	8082                	ret

0000000080000c62 <memcmp>:

int
memcmp(const void *v1, const void *v2, uint n)
{
    80000c62:	1141                	addi	sp,sp,-16
    80000c64:	e422                	sd	s0,8(sp)
    80000c66:	0800                	addi	s0,sp,16
  const uchar *s1, *s2;

  s1 = v1;
  s2 = v2;
  while(n-- > 0){
    80000c68:	ca05                	beqz	a2,80000c98 <memcmp+0x36>
    80000c6a:	fff6069b          	addiw	a3,a2,-1
    80000c6e:	1682                	slli	a3,a3,0x20
    80000c70:	9281                	srli	a3,a3,0x20
    80000c72:	0685                	addi	a3,a3,1
    80000c74:	96aa                	add	a3,a3,a0
    if(*s1 != *s2)
    80000c76:	00054783          	lbu	a5,0(a0)
    80000c7a:	0005c703          	lbu	a4,0(a1)
    80000c7e:	00e79863          	bne	a5,a4,80000c8e <memcmp+0x2c>
      return *s1 - *s2;
    s1++, s2++;
    80000c82:	0505                	addi	a0,a0,1
    80000c84:	0585                	addi	a1,a1,1
  while(n-- > 0){
    80000c86:	fed518e3          	bne	a0,a3,80000c76 <memcmp+0x14>
  }

  return 0;
    80000c8a:	4501                	li	a0,0
    80000c8c:	a019                	j	80000c92 <memcmp+0x30>
      return *s1 - *s2;
    80000c8e:	40e7853b          	subw	a0,a5,a4
}
    80000c92:	6422                	ld	s0,8(sp)
    80000c94:	0141                	addi	sp,sp,16
    80000c96:	8082                	ret
  return 0;
    80000c98:	4501                	li	a0,0
    80000c9a:	bfe5                	j	80000c92 <memcmp+0x30>

0000000080000c9c <memmove>:

void*
memmove(void *dst, const void *src, uint n)
{
    80000c9c:	1141                	addi	sp,sp,-16
    80000c9e:	e422                	sd	s0,8(sp)
    80000ca0:	0800                	addi	s0,sp,16
  const char *s;
  char *d;

  if(n == 0)
    80000ca2:	c205                	beqz	a2,80000cc2 <memmove+0x26>
    return dst;
  
  s = src;
  d = dst;
  if(s < d && s + n > d){
    80000ca4:	02a5e263          	bltu	a1,a0,80000cc8 <memmove+0x2c>
    s += n;
    d += n;
    while(n-- > 0)
      *--d = *--s;
  } else
    while(n-- > 0)
    80000ca8:	1602                	slli	a2,a2,0x20
    80000caa:	9201                	srli	a2,a2,0x20
    80000cac:	00c587b3          	add	a5,a1,a2
{
    80000cb0:	872a                	mv	a4,a0
      *d++ = *s++;
    80000cb2:	0585                	addi	a1,a1,1
    80000cb4:	0705                	addi	a4,a4,1
    80000cb6:	fff5c683          	lbu	a3,-1(a1)
    80000cba:	fed70fa3          	sb	a3,-1(a4)
    while(n-- > 0)
    80000cbe:	fef59ae3          	bne	a1,a5,80000cb2 <memmove+0x16>

  return dst;
}
    80000cc2:	6422                	ld	s0,8(sp)
    80000cc4:	0141                	addi	sp,sp,16
    80000cc6:	8082                	ret
  if(s < d && s + n > d){
    80000cc8:	02061693          	slli	a3,a2,0x20
    80000ccc:	9281                	srli	a3,a3,0x20
    80000cce:	00d58733          	add	a4,a1,a3
    80000cd2:	fce57be3          	bgeu	a0,a4,80000ca8 <memmove+0xc>
    d += n;
    80000cd6:	96aa                	add	a3,a3,a0
    while(n-- > 0)
    80000cd8:	fff6079b          	addiw	a5,a2,-1
    80000cdc:	1782                	slli	a5,a5,0x20
    80000cde:	9381                	srli	a5,a5,0x20
    80000ce0:	fff7c793          	not	a5,a5
    80000ce4:	97ba                	add	a5,a5,a4
      *--d = *--s;
    80000ce6:	177d                	addi	a4,a4,-1
    80000ce8:	16fd                	addi	a3,a3,-1
    80000cea:	00074603          	lbu	a2,0(a4)
    80000cee:	00c68023          	sb	a2,0(a3)
    while(n-- > 0)
    80000cf2:	fee79ae3          	bne	a5,a4,80000ce6 <memmove+0x4a>
    80000cf6:	b7f1                	j	80000cc2 <memmove+0x26>

0000000080000cf8 <memcpy>:

// memcpy exists to placate GCC.  Use memmove.
void*
memcpy(void *dst, const void *src, uint n)
{
    80000cf8:	1141                	addi	sp,sp,-16
    80000cfa:	e406                	sd	ra,8(sp)
    80000cfc:	e022                	sd	s0,0(sp)
    80000cfe:	0800                	addi	s0,sp,16
  return memmove(dst, src, n);
    80000d00:	f9dff0ef          	jal	ra,80000c9c <memmove>
}
    80000d04:	60a2                	ld	ra,8(sp)
    80000d06:	6402                	ld	s0,0(sp)
    80000d08:	0141                	addi	sp,sp,16
    80000d0a:	8082                	ret

0000000080000d0c <strncmp>:

int
strncmp(const char *p, const char *q, uint n)
{
    80000d0c:	1141                	addi	sp,sp,-16
    80000d0e:	e422                	sd	s0,8(sp)
    80000d10:	0800                	addi	s0,sp,16
  while(n > 0 && *p && *p == *q)
    80000d12:	ce11                	beqz	a2,80000d2e <strncmp+0x22>
    80000d14:	00054783          	lbu	a5,0(a0)
    80000d18:	cf89                	beqz	a5,80000d32 <strncmp+0x26>
    80000d1a:	0005c703          	lbu	a4,0(a1)
    80000d1e:	00f71a63          	bne	a4,a5,80000d32 <strncmp+0x26>
    n--, p++, q++;
    80000d22:	367d                	addiw	a2,a2,-1
    80000d24:	0505                	addi	a0,a0,1
    80000d26:	0585                	addi	a1,a1,1
  while(n > 0 && *p && *p == *q)
    80000d28:	f675                	bnez	a2,80000d14 <strncmp+0x8>
  if(n == 0)
    return 0;
    80000d2a:	4501                	li	a0,0
    80000d2c:	a809                	j	80000d3e <strncmp+0x32>
    80000d2e:	4501                	li	a0,0
    80000d30:	a039                	j	80000d3e <strncmp+0x32>
  if(n == 0)
    80000d32:	ca09                	beqz	a2,80000d44 <strncmp+0x38>
  return (uchar)*p - (uchar)*q;
    80000d34:	00054503          	lbu	a0,0(a0)
    80000d38:	0005c783          	lbu	a5,0(a1)
    80000d3c:	9d1d                	subw	a0,a0,a5
}
    80000d3e:	6422                	ld	s0,8(sp)
    80000d40:	0141                	addi	sp,sp,16
    80000d42:	8082                	ret
    return 0;
    80000d44:	4501                	li	a0,0
    80000d46:	bfe5                	j	80000d3e <strncmp+0x32>

0000000080000d48 <strncpy>:

char*
strncpy(char *s, const char *t, int n)
{
    80000d48:	1141                	addi	sp,sp,-16
    80000d4a:	e422                	sd	s0,8(sp)
    80000d4c:	0800                	addi	s0,sp,16
  char *os;

  os = s;
  while(n-- > 0 && (*s++ = *t++) != 0)
    80000d4e:	872a                	mv	a4,a0
    80000d50:	8832                	mv	a6,a2
    80000d52:	367d                	addiw	a2,a2,-1
    80000d54:	01005963          	blez	a6,80000d66 <strncpy+0x1e>
    80000d58:	0705                	addi	a4,a4,1
    80000d5a:	0005c783          	lbu	a5,0(a1)
    80000d5e:	fef70fa3          	sb	a5,-1(a4)
    80000d62:	0585                	addi	a1,a1,1
    80000d64:	f7f5                	bnez	a5,80000d50 <strncpy+0x8>
    ;
  while(n-- > 0)
    80000d66:	86ba                	mv	a3,a4
    80000d68:	00c05c63          	blez	a2,80000d80 <strncpy+0x38>
    *s++ = 0;
    80000d6c:	0685                	addi	a3,a3,1
    80000d6e:	fe068fa3          	sb	zero,-1(a3)
  while(n-- > 0)
    80000d72:	fff6c793          	not	a5,a3
    80000d76:	9fb9                	addw	a5,a5,a4
    80000d78:	010787bb          	addw	a5,a5,a6
    80000d7c:	fef048e3          	bgtz	a5,80000d6c <strncpy+0x24>
  return os;
}
    80000d80:	6422                	ld	s0,8(sp)
    80000d82:	0141                	addi	sp,sp,16
    80000d84:	8082                	ret

0000000080000d86 <safestrcpy>:

// Like strncpy but guaranteed to NUL-terminate.
char*
safestrcpy(char *s, const char *t, int n)
{
    80000d86:	1141                	addi	sp,sp,-16
    80000d88:	e422                	sd	s0,8(sp)
    80000d8a:	0800                	addi	s0,sp,16
  char *os;

  os = s;
  if(n <= 0)
    80000d8c:	02c05363          	blez	a2,80000db2 <safestrcpy+0x2c>
    80000d90:	fff6069b          	addiw	a3,a2,-1
    80000d94:	1682                	slli	a3,a3,0x20
    80000d96:	9281                	srli	a3,a3,0x20
    80000d98:	96ae                	add	a3,a3,a1
    80000d9a:	87aa                	mv	a5,a0
    return os;
  while(--n > 0 && (*s++ = *t++) != 0)
    80000d9c:	00d58963          	beq	a1,a3,80000dae <safestrcpy+0x28>
    80000da0:	0585                	addi	a1,a1,1
    80000da2:	0785                	addi	a5,a5,1
    80000da4:	fff5c703          	lbu	a4,-1(a1)
    80000da8:	fee78fa3          	sb	a4,-1(a5)
    80000dac:	fb65                	bnez	a4,80000d9c <safestrcpy+0x16>
    ;
  *s = 0;
    80000dae:	00078023          	sb	zero,0(a5)
  return os;
}
    80000db2:	6422                	ld	s0,8(sp)
    80000db4:	0141                	addi	sp,sp,16
    80000db6:	8082                	ret

0000000080000db8 <strlen>:

int
strlen(const char *s)
{
    80000db8:	1141                	addi	sp,sp,-16
    80000dba:	e422                	sd	s0,8(sp)
    80000dbc:	0800                	addi	s0,sp,16
  int n;

  for(n = 0; s[n]; n++)
    80000dbe:	00054783          	lbu	a5,0(a0)
    80000dc2:	cf91                	beqz	a5,80000dde <strlen+0x26>
    80000dc4:	0505                	addi	a0,a0,1
    80000dc6:	87aa                	mv	a5,a0
    80000dc8:	4685                	li	a3,1
    80000dca:	9e89                	subw	a3,a3,a0
    80000dcc:	00f6853b          	addw	a0,a3,a5
    80000dd0:	0785                	addi	a5,a5,1
    80000dd2:	fff7c703          	lbu	a4,-1(a5)
    80000dd6:	fb7d                	bnez	a4,80000dcc <strlen+0x14>
    ;
  return n;
}
    80000dd8:	6422                	ld	s0,8(sp)
    80000dda:	0141                	addi	sp,sp,16
    80000ddc:	8082                	ret
  for(n = 0; s[n]; n++)
    80000dde:	4501                	li	a0,0
    80000de0:	bfe5                	j	80000dd8 <strlen+0x20>

0000000080000de2 <main>:
volatile static int started = 0;

// start() jumps here in supervisor mode on all CPUs.
void
main()
{
    80000de2:	1141                	addi	sp,sp,-16
    80000de4:	e406                	sd	ra,8(sp)
    80000de6:	e022                	sd	s0,0(sp)
    80000de8:	0800                	addi	s0,sp,16
  if(cpuid() == 0){
    80000dea:	5b2010ef          	jal	ra,8000239c <cpuid>
    virtio_disk_init(); // emulated hard disk
    userinit();      // first user process
    __sync_synchronize();
    started = 1;
  } else {
    while(started == 0)
    80000dee:	00008717          	auipc	a4,0x8
    80000df2:	f1270713          	addi	a4,a4,-238 # 80008d00 <started>
  if(cpuid() == 0){
    80000df6:	c51d                	beqz	a0,80000e24 <main+0x42>
    while(started == 0)
    80000df8:	431c                	lw	a5,0(a4)
    80000dfa:	2781                	sext.w	a5,a5
    80000dfc:	dff5                	beqz	a5,80000df8 <main+0x16>
      ;
    __sync_synchronize();
    80000dfe:	0ff0000f          	fence
    printf("hart %d starting\n", cpuid());
    80000e02:	59a010ef          	jal	ra,8000239c <cpuid>
    80000e06:	85aa                	mv	a1,a0
    80000e08:	00007517          	auipc	a0,0x7
    80000e0c:	2a850513          	addi	a0,a0,680 # 800080b0 <digits+0x78>
    80000e10:	eb4ff0ef          	jal	ra,800004c4 <printf>
    kvminithart();    // turn on paging
    80000e14:	080000ef          	jal	ra,80000e94 <kvminithart>
    trapinithart();   // install kernel trap vector
    80000e18:	1ca020ef          	jal	ra,80002fe2 <trapinithart>
    plicinithart();   // ask PLIC for device interrupts
    80000e1c:	298050ef          	jal	ra,800060b4 <plicinithart>
  }

  scheduler();        
    80000e20:	2ad010ef          	jal	ra,800028cc <scheduler>
    consoleinit();
    80000e24:	dc8ff0ef          	jal	ra,800003ec <consoleinit>
    printfinit();
    80000e28:	99fff0ef          	jal	ra,800007c6 <printfinit>
    printf("\n");
    80000e2c:	00007517          	auipc	a0,0x7
    80000e30:	4f450513          	addi	a0,a0,1268 # 80008320 <digits+0x2e8>
    80000e34:	e90ff0ef          	jal	ra,800004c4 <printf>
    printf("xv6 kernel is booting\n");
    80000e38:	00007517          	auipc	a0,0x7
    80000e3c:	26050513          	addi	a0,a0,608 # 80008098 <digits+0x60>
    80000e40:	e84ff0ef          	jal	ra,800004c4 <printf>
    printf("\n");
    80000e44:	00007517          	auipc	a0,0x7
    80000e48:	4dc50513          	addi	a0,a0,1244 # 80008320 <digits+0x2e8>
    80000e4c:	e78ff0ef          	jal	ra,800004c4 <printf>
    kinit();         // physical page allocator
    80000e50:	c19ff0ef          	jal	ra,80000a68 <kinit>
    kvminit();       // create kernel page table
    80000e54:	2ca000ef          	jal	ra,8000111e <kvminit>
    kvminithart();   // turn on paging
    80000e58:	03c000ef          	jal	ra,80000e94 <kvminithart>
    procinit();      // process table
    80000e5c:	490010ef          	jal	ra,800022ec <procinit>
    trapinit();      // trap vectors
    80000e60:	15e020ef          	jal	ra,80002fbe <trapinit>
    trapinithart();  // install kernel trap vector
    80000e64:	17e020ef          	jal	ra,80002fe2 <trapinithart>
    plicinit();      // set up interrupt controller
    80000e68:	236050ef          	jal	ra,8000609e <plicinit>
    plicinithart();  // ask PLIC for device interrupts
    80000e6c:	248050ef          	jal	ra,800060b4 <plicinithart>
    binit();         // buffer cache
    80000e70:	1af020ef          	jal	ra,8000381e <binit>
    iinit();         // inode table
    80000e74:	723020ef          	jal	ra,80003d96 <iinit>
    fileinit();      // file table
    80000e78:	603030ef          	jal	ra,80004c7a <fileinit>
    virtio_disk_init(); // emulated hard disk
    80000e7c:	328050ef          	jal	ra,800061a4 <virtio_disk_init>
    userinit();      // first user process
    80000e80:	0b5010ef          	jal	ra,80002734 <userinit>
    __sync_synchronize();
    80000e84:	0ff0000f          	fence
    started = 1;
    80000e88:	4785                	li	a5,1
    80000e8a:	00008717          	auipc	a4,0x8
    80000e8e:	e6f72b23          	sw	a5,-394(a4) # 80008d00 <started>
    80000e92:	b779                	j	80000e20 <main+0x3e>

0000000080000e94 <kvminithart>:

// Switch the current CPU's h/w page table register to
// the kernel's page table, and enable paging.
void
kvminithart()
{
    80000e94:	1141                	addi	sp,sp,-16
    80000e96:	e422                	sd	s0,8(sp)
    80000e98:	0800                	addi	s0,sp,16
// flush the TLB.
static inline void
sfence_vma()
{
  // the zero, zero means flush all TLB entries.
  asm volatile("sfence.vma zero, zero");
    80000e9a:	12000073          	sfence.vma
  // wait for any previous writes to the page table memory to finish.
  sfence_vma();

  w_satp(MAKE_SATP(kernel_pagetable));
    80000e9e:	00008797          	auipc	a5,0x8
    80000ea2:	e6a7b783          	ld	a5,-406(a5) # 80008d08 <kernel_pagetable>
    80000ea6:	83b1                	srli	a5,a5,0xc
    80000ea8:	577d                	li	a4,-1
    80000eaa:	177e                	slli	a4,a4,0x3f
    80000eac:	8fd9                	or	a5,a5,a4
  asm volatile("csrw satp, %0" : : "r" (x));
    80000eae:	18079073          	csrw	satp,a5
  asm volatile("sfence.vma zero, zero");
    80000eb2:	12000073          	sfence.vma

  // flush stale entries from the TLB.
  sfence_vma();
}
    80000eb6:	6422                	ld	s0,8(sp)
    80000eb8:	0141                	addi	sp,sp,16
    80000eba:	8082                	ret

0000000080000ebc <walk>:
//   21..29 -- 9 bits of level-1 index.
//   12..20 -- 9 bits of level-0 index.
//    0..11 -- 12 bits of byte offset within the page.
pte_t *
walk(pagetable_t pagetable, uint64 va, int alloc)
{
    80000ebc:	7139                	addi	sp,sp,-64
    80000ebe:	fc06                	sd	ra,56(sp)
    80000ec0:	f822                	sd	s0,48(sp)
    80000ec2:	f426                	sd	s1,40(sp)
    80000ec4:	f04a                	sd	s2,32(sp)
    80000ec6:	ec4e                	sd	s3,24(sp)
    80000ec8:	e852                	sd	s4,16(sp)
    80000eca:	e456                	sd	s5,8(sp)
    80000ecc:	e05a                	sd	s6,0(sp)
    80000ece:	0080                	addi	s0,sp,64
    80000ed0:	84aa                	mv	s1,a0
    80000ed2:	89ae                	mv	s3,a1
    80000ed4:	8ab2                	mv	s5,a2
  if(va >= MAXVA)
    80000ed6:	57fd                	li	a5,-1
    80000ed8:	83e9                	srli	a5,a5,0x1a
    80000eda:	4a79                	li	s4,30
    panic("walk");

  for(int level = 2; level > 0; level--) {
    80000edc:	4b31                	li	s6,12
  if(va >= MAXVA)
    80000ede:	02b7fc63          	bgeu	a5,a1,80000f16 <walk+0x5a>
    panic("walk");
    80000ee2:	00007517          	auipc	a0,0x7
    80000ee6:	1e650513          	addi	a0,a0,486 # 800080c8 <digits+0x90>
    80000eea:	8a1ff0ef          	jal	ra,8000078a <panic>
    pte_t *pte = &pagetable[PX(level, va)];
    if(*pte & PTE_V) {
      pagetable = (pagetable_t)PTE2PA(*pte);
    } else {
      if(!alloc || (pagetable = (pde_t*)kalloc()) == 0)
    80000eee:	060a8263          	beqz	s5,80000f52 <walk+0x96>
    80000ef2:	babff0ef          	jal	ra,80000a9c <kalloc>
    80000ef6:	84aa                	mv	s1,a0
    80000ef8:	c139                	beqz	a0,80000f3e <walk+0x82>
        return 0;
      memset(pagetable, 0, PGSIZE);
    80000efa:	6605                	lui	a2,0x1
    80000efc:	4581                	li	a1,0
    80000efe:	d43ff0ef          	jal	ra,80000c40 <memset>
      *pte = PA2PTE(pagetable) | PTE_V;
    80000f02:	00c4d793          	srli	a5,s1,0xc
    80000f06:	07aa                	slli	a5,a5,0xa
    80000f08:	0017e793          	ori	a5,a5,1
    80000f0c:	00f93023          	sd	a5,0(s2)
  for(int level = 2; level > 0; level--) {
    80000f10:	3a5d                	addiw	s4,s4,-9
    80000f12:	036a0063          	beq	s4,s6,80000f32 <walk+0x76>
    pte_t *pte = &pagetable[PX(level, va)];
    80000f16:	0149d933          	srl	s2,s3,s4
    80000f1a:	1ff97913          	andi	s2,s2,511
    80000f1e:	090e                	slli	s2,s2,0x3
    80000f20:	9926                	add	s2,s2,s1
    if(*pte & PTE_V) {
    80000f22:	00093483          	ld	s1,0(s2)
    80000f26:	0014f793          	andi	a5,s1,1
    80000f2a:	d3f1                	beqz	a5,80000eee <walk+0x32>
      pagetable = (pagetable_t)PTE2PA(*pte);
    80000f2c:	80a9                	srli	s1,s1,0xa
    80000f2e:	04b2                	slli	s1,s1,0xc
    80000f30:	b7c5                	j	80000f10 <walk+0x54>
    }
  }
  return &pagetable[PX(0, va)];
    80000f32:	00c9d513          	srli	a0,s3,0xc
    80000f36:	1ff57513          	andi	a0,a0,511
    80000f3a:	050e                	slli	a0,a0,0x3
    80000f3c:	9526                	add	a0,a0,s1
}
    80000f3e:	70e2                	ld	ra,56(sp)
    80000f40:	7442                	ld	s0,48(sp)
    80000f42:	74a2                	ld	s1,40(sp)
    80000f44:	7902                	ld	s2,32(sp)
    80000f46:	69e2                	ld	s3,24(sp)
    80000f48:	6a42                	ld	s4,16(sp)
    80000f4a:	6aa2                	ld	s5,8(sp)
    80000f4c:	6b02                	ld	s6,0(sp)
    80000f4e:	6121                	addi	sp,sp,64
    80000f50:	8082                	ret
        return 0;
    80000f52:	4501                	li	a0,0
    80000f54:	b7ed                	j	80000f3e <walk+0x82>

0000000080000f56 <walkaddr>:
walkaddr(pagetable_t pagetable, uint64 va)
{
  pte_t *pte;
  uint64 pa;

  if(va >= MAXVA)
    80000f56:	57fd                	li	a5,-1
    80000f58:	83e9                	srli	a5,a5,0x1a
    80000f5a:	00b7f463          	bgeu	a5,a1,80000f62 <walkaddr+0xc>
    return 0;
    80000f5e:	4501                	li	a0,0
    return 0;
  if((*pte & PTE_U) == 0)
    return 0;
  pa = PTE2PA(*pte);
  return pa;
}
    80000f60:	8082                	ret
{
    80000f62:	1141                	addi	sp,sp,-16
    80000f64:	e406                	sd	ra,8(sp)
    80000f66:	e022                	sd	s0,0(sp)
    80000f68:	0800                	addi	s0,sp,16
  pte = walk(pagetable, va, 0);
    80000f6a:	4601                	li	a2,0
    80000f6c:	f51ff0ef          	jal	ra,80000ebc <walk>
  if(pte == 0)
    80000f70:	c105                	beqz	a0,80000f90 <walkaddr+0x3a>
  if((*pte & PTE_V) == 0)
    80000f72:	611c                	ld	a5,0(a0)
  if((*pte & PTE_U) == 0)
    80000f74:	0117f693          	andi	a3,a5,17
    80000f78:	4745                	li	a4,17
    return 0;
    80000f7a:	4501                	li	a0,0
  if((*pte & PTE_U) == 0)
    80000f7c:	00e68663          	beq	a3,a4,80000f88 <walkaddr+0x32>
}
    80000f80:	60a2                	ld	ra,8(sp)
    80000f82:	6402                	ld	s0,0(sp)
    80000f84:	0141                	addi	sp,sp,16
    80000f86:	8082                	ret
  pa = PTE2PA(*pte);
    80000f88:	00a7d513          	srli	a0,a5,0xa
    80000f8c:	0532                	slli	a0,a0,0xc
  return pa;
    80000f8e:	bfcd                	j	80000f80 <walkaddr+0x2a>
    return 0;
    80000f90:	4501                	li	a0,0
    80000f92:	b7fd                	j	80000f80 <walkaddr+0x2a>

0000000080000f94 <mappages>:
// va and size MUST be page-aligned.
// Returns 0 on success, -1 if walk() couldn't
// allocate a needed page-table page.
int
mappages(pagetable_t pagetable, uint64 va, uint64 size, uint64 pa, int perm)
{
    80000f94:	715d                	addi	sp,sp,-80
    80000f96:	e486                	sd	ra,72(sp)
    80000f98:	e0a2                	sd	s0,64(sp)
    80000f9a:	fc26                	sd	s1,56(sp)
    80000f9c:	f84a                	sd	s2,48(sp)
    80000f9e:	f44e                	sd	s3,40(sp)
    80000fa0:	f052                	sd	s4,32(sp)
    80000fa2:	ec56                	sd	s5,24(sp)
    80000fa4:	e85a                	sd	s6,16(sp)
    80000fa6:	e45e                	sd	s7,8(sp)
    80000fa8:	0880                	addi	s0,sp,80
  uint64 a, last;
  pte_t *pte;

  if((va % PGSIZE) != 0)
    80000faa:	03459793          	slli	a5,a1,0x34
    80000fae:	e7a9                	bnez	a5,80000ff8 <mappages+0x64>
    80000fb0:	8aaa                	mv	s5,a0
    80000fb2:	8b3a                	mv	s6,a4
    panic("mappages: va not aligned");

  if((size % PGSIZE) != 0)
    80000fb4:	03461793          	slli	a5,a2,0x34
    80000fb8:	e7b1                	bnez	a5,80001004 <mappages+0x70>
    panic("mappages: size not aligned");

  if(size == 0)
    80000fba:	ca39                	beqz	a2,80001010 <mappages+0x7c>
    panic("mappages: size");
  
  a = va;
  last = va + size - PGSIZE;
    80000fbc:	79fd                	lui	s3,0xfffff
    80000fbe:	964e                	add	a2,a2,s3
    80000fc0:	00b609b3          	add	s3,a2,a1
  a = va;
    80000fc4:	892e                	mv	s2,a1
    80000fc6:	40b68a33          	sub	s4,a3,a1
    if(*pte & PTE_V)
      panic("mappages: remap");
    *pte = PA2PTE(pa) | perm | PTE_V;
    if(a == last)
      break;
    a += PGSIZE;
    80000fca:	6b85                	lui	s7,0x1
    80000fcc:	012a04b3          	add	s1,s4,s2
    if((pte = walk(pagetable, a, 1)) == 0)
    80000fd0:	4605                	li	a2,1
    80000fd2:	85ca                	mv	a1,s2
    80000fd4:	8556                	mv	a0,s5
    80000fd6:	ee7ff0ef          	jal	ra,80000ebc <walk>
    80000fda:	c539                	beqz	a0,80001028 <mappages+0x94>
    if(*pte & PTE_V)
    80000fdc:	611c                	ld	a5,0(a0)
    80000fde:	8b85                	andi	a5,a5,1
    80000fe0:	ef95                	bnez	a5,8000101c <mappages+0x88>
    *pte = PA2PTE(pa) | perm | PTE_V;
    80000fe2:	80b1                	srli	s1,s1,0xc
    80000fe4:	04aa                	slli	s1,s1,0xa
    80000fe6:	0164e4b3          	or	s1,s1,s6
    80000fea:	0014e493          	ori	s1,s1,1
    80000fee:	e104                	sd	s1,0(a0)
    if(a == last)
    80000ff0:	05390863          	beq	s2,s3,80001040 <mappages+0xac>
    a += PGSIZE;
    80000ff4:	995e                	add	s2,s2,s7
    if((pte = walk(pagetable, a, 1)) == 0)
    80000ff6:	bfd9                	j	80000fcc <mappages+0x38>
    panic("mappages: va not aligned");
    80000ff8:	00007517          	auipc	a0,0x7
    80000ffc:	0d850513          	addi	a0,a0,216 # 800080d0 <digits+0x98>
    80001000:	f8aff0ef          	jal	ra,8000078a <panic>
    panic("mappages: size not aligned");
    80001004:	00007517          	auipc	a0,0x7
    80001008:	0ec50513          	addi	a0,a0,236 # 800080f0 <digits+0xb8>
    8000100c:	f7eff0ef          	jal	ra,8000078a <panic>
    panic("mappages: size");
    80001010:	00007517          	auipc	a0,0x7
    80001014:	10050513          	addi	a0,a0,256 # 80008110 <digits+0xd8>
    80001018:	f72ff0ef          	jal	ra,8000078a <panic>
      panic("mappages: remap");
    8000101c:	00007517          	auipc	a0,0x7
    80001020:	10450513          	addi	a0,a0,260 # 80008120 <digits+0xe8>
    80001024:	f66ff0ef          	jal	ra,8000078a <panic>
      return -1;
    80001028:	557d                	li	a0,-1
    pa += PGSIZE;
  }
  return 0;
}
    8000102a:	60a6                	ld	ra,72(sp)
    8000102c:	6406                	ld	s0,64(sp)
    8000102e:	74e2                	ld	s1,56(sp)
    80001030:	7942                	ld	s2,48(sp)
    80001032:	79a2                	ld	s3,40(sp)
    80001034:	7a02                	ld	s4,32(sp)
    80001036:	6ae2                	ld	s5,24(sp)
    80001038:	6b42                	ld	s6,16(sp)
    8000103a:	6ba2                	ld	s7,8(sp)
    8000103c:	6161                	addi	sp,sp,80
    8000103e:	8082                	ret
  return 0;
    80001040:	4501                	li	a0,0
    80001042:	b7e5                	j	8000102a <mappages+0x96>

0000000080001044 <kvmmap>:
{
    80001044:	1141                	addi	sp,sp,-16
    80001046:	e406                	sd	ra,8(sp)
    80001048:	e022                	sd	s0,0(sp)
    8000104a:	0800                	addi	s0,sp,16
    8000104c:	87b6                	mv	a5,a3
  if(mappages(kpgtbl, va, sz, pa, perm) != 0)
    8000104e:	86b2                	mv	a3,a2
    80001050:	863e                	mv	a2,a5
    80001052:	f43ff0ef          	jal	ra,80000f94 <mappages>
    80001056:	e509                	bnez	a0,80001060 <kvmmap+0x1c>
}
    80001058:	60a2                	ld	ra,8(sp)
    8000105a:	6402                	ld	s0,0(sp)
    8000105c:	0141                	addi	sp,sp,16
    8000105e:	8082                	ret
    panic("kvmmap");
    80001060:	00007517          	auipc	a0,0x7
    80001064:	0d050513          	addi	a0,a0,208 # 80008130 <digits+0xf8>
    80001068:	f22ff0ef          	jal	ra,8000078a <panic>

000000008000106c <kvmmake>:
{
    8000106c:	1101                	addi	sp,sp,-32
    8000106e:	ec06                	sd	ra,24(sp)
    80001070:	e822                	sd	s0,16(sp)
    80001072:	e426                	sd	s1,8(sp)
    80001074:	e04a                	sd	s2,0(sp)
    80001076:	1000                	addi	s0,sp,32
  kpgtbl = (pagetable_t) kalloc();
    80001078:	a25ff0ef          	jal	ra,80000a9c <kalloc>
    8000107c:	84aa                	mv	s1,a0
  memset(kpgtbl, 0, PGSIZE);
    8000107e:	6605                	lui	a2,0x1
    80001080:	4581                	li	a1,0
    80001082:	bbfff0ef          	jal	ra,80000c40 <memset>
  kvmmap(kpgtbl, UART0, UART0, PGSIZE, PTE_R | PTE_W);
    80001086:	4719                	li	a4,6
    80001088:	6685                	lui	a3,0x1
    8000108a:	10000637          	lui	a2,0x10000
    8000108e:	100005b7          	lui	a1,0x10000
    80001092:	8526                	mv	a0,s1
    80001094:	fb1ff0ef          	jal	ra,80001044 <kvmmap>
  kvmmap(kpgtbl, VIRTIO0, VIRTIO0, PGSIZE, PTE_R | PTE_W);
    80001098:	4719                	li	a4,6
    8000109a:	6685                	lui	a3,0x1
    8000109c:	10001637          	lui	a2,0x10001
    800010a0:	100015b7          	lui	a1,0x10001
    800010a4:	8526                	mv	a0,s1
    800010a6:	f9fff0ef          	jal	ra,80001044 <kvmmap>
  kvmmap(kpgtbl, PLIC, PLIC, 0x4000000, PTE_R | PTE_W);
    800010aa:	4719                	li	a4,6
    800010ac:	040006b7          	lui	a3,0x4000
    800010b0:	0c000637          	lui	a2,0xc000
    800010b4:	0c0005b7          	lui	a1,0xc000
    800010b8:	8526                	mv	a0,s1
    800010ba:	f8bff0ef          	jal	ra,80001044 <kvmmap>
  kvmmap(kpgtbl, KERNBASE, KERNBASE, (uint64)etext-KERNBASE, PTE_R | PTE_X);
    800010be:	00007917          	auipc	s2,0x7
    800010c2:	f4290913          	addi	s2,s2,-190 # 80008000 <etext>
    800010c6:	4729                	li	a4,10
    800010c8:	80007697          	auipc	a3,0x80007
    800010cc:	f3868693          	addi	a3,a3,-200 # 8000 <_entry-0x7fff8000>
    800010d0:	4605                	li	a2,1
    800010d2:	067e                	slli	a2,a2,0x1f
    800010d4:	85b2                	mv	a1,a2
    800010d6:	8526                	mv	a0,s1
    800010d8:	f6dff0ef          	jal	ra,80001044 <kvmmap>
  kvmmap(kpgtbl, (uint64)etext, (uint64)etext, PHYSTOP-(uint64)etext, PTE_R | PTE_W);
    800010dc:	4719                	li	a4,6
    800010de:	46c5                	li	a3,17
    800010e0:	06ee                	slli	a3,a3,0x1b
    800010e2:	412686b3          	sub	a3,a3,s2
    800010e6:	864a                	mv	a2,s2
    800010e8:	85ca                	mv	a1,s2
    800010ea:	8526                	mv	a0,s1
    800010ec:	f59ff0ef          	jal	ra,80001044 <kvmmap>
  kvmmap(kpgtbl, TRAMPOLINE, (uint64)trampoline, PGSIZE, PTE_R | PTE_X);
    800010f0:	4729                	li	a4,10
    800010f2:	6685                	lui	a3,0x1
    800010f4:	00006617          	auipc	a2,0x6
    800010f8:	f0c60613          	addi	a2,a2,-244 # 80007000 <_trampoline>
    800010fc:	040005b7          	lui	a1,0x4000
    80001100:	15fd                	addi	a1,a1,-1
    80001102:	05b2                	slli	a1,a1,0xc
    80001104:	8526                	mv	a0,s1
    80001106:	f3fff0ef          	jal	ra,80001044 <kvmmap>
  proc_mapstacks(kpgtbl);
    8000110a:	8526                	mv	a0,s1
    8000110c:	14e010ef          	jal	ra,8000225a <proc_mapstacks>
}
    80001110:	8526                	mv	a0,s1
    80001112:	60e2                	ld	ra,24(sp)
    80001114:	6442                	ld	s0,16(sp)
    80001116:	64a2                	ld	s1,8(sp)
    80001118:	6902                	ld	s2,0(sp)
    8000111a:	6105                	addi	sp,sp,32
    8000111c:	8082                	ret

000000008000111e <kvminit>:
{
    8000111e:	1141                	addi	sp,sp,-16
    80001120:	e406                	sd	ra,8(sp)
    80001122:	e022                	sd	s0,0(sp)
    80001124:	0800                	addi	s0,sp,16
  kernel_pagetable = kvmmake();
    80001126:	f47ff0ef          	jal	ra,8000106c <kvmmake>
    8000112a:	00008797          	auipc	a5,0x8
    8000112e:	bca7bf23          	sd	a0,-1058(a5) # 80008d08 <kernel_pagetable>
}
    80001132:	60a2                	ld	ra,8(sp)
    80001134:	6402                	ld	s0,0(sp)
    80001136:	0141                	addi	sp,sp,16
    80001138:	8082                	ret

000000008000113a <uvmcreate>:

// create an empty user page table.
// returns 0 if out of memory.
pagetable_t
uvmcreate()
{
    8000113a:	1101                	addi	sp,sp,-32
    8000113c:	ec06                	sd	ra,24(sp)
    8000113e:	e822                	sd	s0,16(sp)
    80001140:	e426                	sd	s1,8(sp)
    80001142:	1000                	addi	s0,sp,32
  pagetable_t pagetable;
  pagetable = (pagetable_t) kalloc();
    80001144:	959ff0ef          	jal	ra,80000a9c <kalloc>
    80001148:	84aa                	mv	s1,a0
  if(pagetable == 0)
    8000114a:	c509                	beqz	a0,80001154 <uvmcreate+0x1a>
    return 0;
  memset(pagetable, 0, PGSIZE);
    8000114c:	6605                	lui	a2,0x1
    8000114e:	4581                	li	a1,0
    80001150:	af1ff0ef          	jal	ra,80000c40 <memset>
  return pagetable;
}
    80001154:	8526                	mv	a0,s1
    80001156:	60e2                	ld	ra,24(sp)
    80001158:	6442                	ld	s0,16(sp)
    8000115a:	64a2                	ld	s1,8(sp)
    8000115c:	6105                	addi	sp,sp,32
    8000115e:	8082                	ret

0000000080001160 <uvmunmap>:
// Remove npages of mappings starting from va. va must be
// page-aligned. It's OK if the mappings don't exist.
// Optionally free the physical memory.
void
uvmunmap(pagetable_t pagetable, uint64 va, uint64 npages, int do_free)
{
    80001160:	7139                	addi	sp,sp,-64
    80001162:	fc06                	sd	ra,56(sp)
    80001164:	f822                	sd	s0,48(sp)
    80001166:	f426                	sd	s1,40(sp)
    80001168:	f04a                	sd	s2,32(sp)
    8000116a:	ec4e                	sd	s3,24(sp)
    8000116c:	e852                	sd	s4,16(sp)
    8000116e:	e456                	sd	s5,8(sp)
    80001170:	e05a                	sd	s6,0(sp)
    80001172:	0080                	addi	s0,sp,64
  uint64 a;
  pte_t *pte;

  if((va % PGSIZE) != 0)
    80001174:	03459793          	slli	a5,a1,0x34
    80001178:	e785                	bnez	a5,800011a0 <uvmunmap+0x40>
    8000117a:	8a2a                	mv	s4,a0
    8000117c:	892e                	mv	s2,a1
    8000117e:	8ab6                	mv	s5,a3
    panic("uvmunmap: not aligned");

  for(a = va; a < va + npages*PGSIZE; a += PGSIZE){
    80001180:	0632                	slli	a2,a2,0xc
    80001182:	00b609b3          	add	s3,a2,a1
    80001186:	6b05                	lui	s6,0x1
    80001188:	0335e763          	bltu	a1,s3,800011b6 <uvmunmap+0x56>
      uint64 pa = PTE2PA(*pte);
      kfree((void*)pa);
    }
    *pte = 0;
  }
}
    8000118c:	70e2                	ld	ra,56(sp)
    8000118e:	7442                	ld	s0,48(sp)
    80001190:	74a2                	ld	s1,40(sp)
    80001192:	7902                	ld	s2,32(sp)
    80001194:	69e2                	ld	s3,24(sp)
    80001196:	6a42                	ld	s4,16(sp)
    80001198:	6aa2                	ld	s5,8(sp)
    8000119a:	6b02                	ld	s6,0(sp)
    8000119c:	6121                	addi	sp,sp,64
    8000119e:	8082                	ret
    panic("uvmunmap: not aligned");
    800011a0:	00007517          	auipc	a0,0x7
    800011a4:	f9850513          	addi	a0,a0,-104 # 80008138 <digits+0x100>
    800011a8:	de2ff0ef          	jal	ra,8000078a <panic>
    *pte = 0;
    800011ac:	0004b023          	sd	zero,0(s1)
  for(a = va; a < va + npages*PGSIZE; a += PGSIZE){
    800011b0:	995a                	add	s2,s2,s6
    800011b2:	fd397de3          	bgeu	s2,s3,8000118c <uvmunmap+0x2c>
    if((pte = walk(pagetable, a, 0)) == 0) // leaf page table entry allocated?
    800011b6:	4601                	li	a2,0
    800011b8:	85ca                	mv	a1,s2
    800011ba:	8552                	mv	a0,s4
    800011bc:	d01ff0ef          	jal	ra,80000ebc <walk>
    800011c0:	84aa                	mv	s1,a0
    800011c2:	d57d                	beqz	a0,800011b0 <uvmunmap+0x50>
    if((*pte & PTE_V) == 0)  // has physical page been allocated?
    800011c4:	611c                	ld	a5,0(a0)
    800011c6:	0017f713          	andi	a4,a5,1
    800011ca:	d37d                	beqz	a4,800011b0 <uvmunmap+0x50>
    if(do_free){
    800011cc:	fe0a80e3          	beqz	s5,800011ac <uvmunmap+0x4c>
      uint64 pa = PTE2PA(*pte);
    800011d0:	83a9                	srli	a5,a5,0xa
      kfree((void*)pa);
    800011d2:	00c79513          	slli	a0,a5,0xc
    800011d6:	fe6ff0ef          	jal	ra,800009bc <kfree>
    800011da:	bfc9                	j	800011ac <uvmunmap+0x4c>

00000000800011dc <uvmdealloc>:
// newsz.  oldsz and newsz need not be page-aligned, nor does newsz
// need to be less than oldsz.  oldsz can be larger than the actual
// process size.  Returns the new process size.
uint64
uvmdealloc(pagetable_t pagetable, uint64 oldsz, uint64 newsz)
{
    800011dc:	1101                	addi	sp,sp,-32
    800011de:	ec06                	sd	ra,24(sp)
    800011e0:	e822                	sd	s0,16(sp)
    800011e2:	e426                	sd	s1,8(sp)
    800011e4:	1000                	addi	s0,sp,32
  if(newsz >= oldsz)
    return oldsz;
    800011e6:	84ae                	mv	s1,a1
  if(newsz >= oldsz)
    800011e8:	00b67d63          	bgeu	a2,a1,80001202 <uvmdealloc+0x26>
    800011ec:	84b2                	mv	s1,a2

  if(PGROUNDUP(newsz) < PGROUNDUP(oldsz)){
    800011ee:	6785                	lui	a5,0x1
    800011f0:	17fd                	addi	a5,a5,-1
    800011f2:	00f60733          	add	a4,a2,a5
    800011f6:	767d                	lui	a2,0xfffff
    800011f8:	8f71                	and	a4,a4,a2
    800011fa:	97ae                	add	a5,a5,a1
    800011fc:	8ff1                	and	a5,a5,a2
    800011fe:	00f76863          	bltu	a4,a5,8000120e <uvmdealloc+0x32>
    int npages = (PGROUNDUP(oldsz) - PGROUNDUP(newsz)) / PGSIZE;
    uvmunmap(pagetable, PGROUNDUP(newsz), npages, 1);
  }

  return newsz;
}
    80001202:	8526                	mv	a0,s1
    80001204:	60e2                	ld	ra,24(sp)
    80001206:	6442                	ld	s0,16(sp)
    80001208:	64a2                	ld	s1,8(sp)
    8000120a:	6105                	addi	sp,sp,32
    8000120c:	8082                	ret
    int npages = (PGROUNDUP(oldsz) - PGROUNDUP(newsz)) / PGSIZE;
    8000120e:	8f99                	sub	a5,a5,a4
    80001210:	83b1                	srli	a5,a5,0xc
    uvmunmap(pagetable, PGROUNDUP(newsz), npages, 1);
    80001212:	4685                	li	a3,1
    80001214:	0007861b          	sext.w	a2,a5
    80001218:	85ba                	mv	a1,a4
    8000121a:	f47ff0ef          	jal	ra,80001160 <uvmunmap>
    8000121e:	b7d5                	j	80001202 <uvmdealloc+0x26>

0000000080001220 <uvmalloc>:
  if(newsz < oldsz)
    80001220:	08b66963          	bltu	a2,a1,800012b2 <uvmalloc+0x92>
{
    80001224:	7139                	addi	sp,sp,-64
    80001226:	fc06                	sd	ra,56(sp)
    80001228:	f822                	sd	s0,48(sp)
    8000122a:	f426                	sd	s1,40(sp)
    8000122c:	f04a                	sd	s2,32(sp)
    8000122e:	ec4e                	sd	s3,24(sp)
    80001230:	e852                	sd	s4,16(sp)
    80001232:	e456                	sd	s5,8(sp)
    80001234:	e05a                	sd	s6,0(sp)
    80001236:	0080                	addi	s0,sp,64
    80001238:	8aaa                	mv	s5,a0
    8000123a:	8a32                	mv	s4,a2
  oldsz = PGROUNDUP(oldsz);
    8000123c:	6985                	lui	s3,0x1
    8000123e:	19fd                	addi	s3,s3,-1
    80001240:	95ce                	add	a1,a1,s3
    80001242:	79fd                	lui	s3,0xfffff
    80001244:	0135f9b3          	and	s3,a1,s3
  for(a = oldsz; a < newsz; a += PGSIZE){
    80001248:	06c9f763          	bgeu	s3,a2,800012b6 <uvmalloc+0x96>
    8000124c:	894e                	mv	s2,s3
    if(mappages(pagetable, a, PGSIZE, (uint64)mem, PTE_R|PTE_U|xperm) != 0){
    8000124e:	0126eb13          	ori	s6,a3,18
    mem = kalloc();
    80001252:	84bff0ef          	jal	ra,80000a9c <kalloc>
    80001256:	84aa                	mv	s1,a0
    if(mem == 0){
    80001258:	c11d                	beqz	a0,8000127e <uvmalloc+0x5e>
    memset(mem, 0, PGSIZE);
    8000125a:	6605                	lui	a2,0x1
    8000125c:	4581                	li	a1,0
    8000125e:	9e3ff0ef          	jal	ra,80000c40 <memset>
    if(mappages(pagetable, a, PGSIZE, (uint64)mem, PTE_R|PTE_U|xperm) != 0){
    80001262:	875a                	mv	a4,s6
    80001264:	86a6                	mv	a3,s1
    80001266:	6605                	lui	a2,0x1
    80001268:	85ca                	mv	a1,s2
    8000126a:	8556                	mv	a0,s5
    8000126c:	d29ff0ef          	jal	ra,80000f94 <mappages>
    80001270:	e51d                	bnez	a0,8000129e <uvmalloc+0x7e>
  for(a = oldsz; a < newsz; a += PGSIZE){
    80001272:	6785                	lui	a5,0x1
    80001274:	993e                	add	s2,s2,a5
    80001276:	fd496ee3          	bltu	s2,s4,80001252 <uvmalloc+0x32>
  return newsz;
    8000127a:	8552                	mv	a0,s4
    8000127c:	a039                	j	8000128a <uvmalloc+0x6a>
      uvmdealloc(pagetable, a, oldsz);
    8000127e:	864e                	mv	a2,s3
    80001280:	85ca                	mv	a1,s2
    80001282:	8556                	mv	a0,s5
    80001284:	f59ff0ef          	jal	ra,800011dc <uvmdealloc>
      return 0;
    80001288:	4501                	li	a0,0
}
    8000128a:	70e2                	ld	ra,56(sp)
    8000128c:	7442                	ld	s0,48(sp)
    8000128e:	74a2                	ld	s1,40(sp)
    80001290:	7902                	ld	s2,32(sp)
    80001292:	69e2                	ld	s3,24(sp)
    80001294:	6a42                	ld	s4,16(sp)
    80001296:	6aa2                	ld	s5,8(sp)
    80001298:	6b02                	ld	s6,0(sp)
    8000129a:	6121                	addi	sp,sp,64
    8000129c:	8082                	ret
      kfree(mem);
    8000129e:	8526                	mv	a0,s1
    800012a0:	f1cff0ef          	jal	ra,800009bc <kfree>
      uvmdealloc(pagetable, a, oldsz);
    800012a4:	864e                	mv	a2,s3
    800012a6:	85ca                	mv	a1,s2
    800012a8:	8556                	mv	a0,s5
    800012aa:	f33ff0ef          	jal	ra,800011dc <uvmdealloc>
      return 0;
    800012ae:	4501                	li	a0,0
    800012b0:	bfe9                	j	8000128a <uvmalloc+0x6a>
    return oldsz;
    800012b2:	852e                	mv	a0,a1
}
    800012b4:	8082                	ret
  return newsz;
    800012b6:	8532                	mv	a0,a2
    800012b8:	bfc9                	j	8000128a <uvmalloc+0x6a>

00000000800012ba <freewalk>:

// Recursively free page-table pages.
// All leaf mappings must already have been removed.
void
freewalk(pagetable_t pagetable)
{
    800012ba:	7179                	addi	sp,sp,-48
    800012bc:	f406                	sd	ra,40(sp)
    800012be:	f022                	sd	s0,32(sp)
    800012c0:	ec26                	sd	s1,24(sp)
    800012c2:	e84a                	sd	s2,16(sp)
    800012c4:	e44e                	sd	s3,8(sp)
    800012c6:	e052                	sd	s4,0(sp)
    800012c8:	1800                	addi	s0,sp,48
    800012ca:	8a2a                	mv	s4,a0
  // there are 2^9 = 512 PTEs in a page table.
  for(int i = 0; i < 512; i++){
    800012cc:	84aa                	mv	s1,a0
    800012ce:	6905                	lui	s2,0x1
    800012d0:	992a                	add	s2,s2,a0
    pte_t pte = pagetable[i];
    if((pte & PTE_V) && (pte & (PTE_R|PTE_W|PTE_X)) == 0){
    800012d2:	4985                	li	s3,1
    800012d4:	a811                	j	800012e8 <freewalk+0x2e>
      // this PTE points to a lower-level page table.
      uint64 child = PTE2PA(pte);
    800012d6:	8129                	srli	a0,a0,0xa
      freewalk((pagetable_t)child);
    800012d8:	0532                	slli	a0,a0,0xc
    800012da:	fe1ff0ef          	jal	ra,800012ba <freewalk>
      pagetable[i] = 0;
    800012de:	0004b023          	sd	zero,0(s1)
  for(int i = 0; i < 512; i++){
    800012e2:	04a1                	addi	s1,s1,8
    800012e4:	01248f63          	beq	s1,s2,80001302 <freewalk+0x48>
    pte_t pte = pagetable[i];
    800012e8:	6088                	ld	a0,0(s1)
    if((pte & PTE_V) && (pte & (PTE_R|PTE_W|PTE_X)) == 0){
    800012ea:	00f57793          	andi	a5,a0,15
    800012ee:	ff3784e3          	beq	a5,s3,800012d6 <freewalk+0x1c>
    } else if(pte & PTE_V){
    800012f2:	8905                	andi	a0,a0,1
    800012f4:	d57d                	beqz	a0,800012e2 <freewalk+0x28>
      panic("freewalk: leaf");
    800012f6:	00007517          	auipc	a0,0x7
    800012fa:	e5a50513          	addi	a0,a0,-422 # 80008150 <digits+0x118>
    800012fe:	c8cff0ef          	jal	ra,8000078a <panic>
    }
  }
  kfree((void*)pagetable);
    80001302:	8552                	mv	a0,s4
    80001304:	eb8ff0ef          	jal	ra,800009bc <kfree>
}
    80001308:	70a2                	ld	ra,40(sp)
    8000130a:	7402                	ld	s0,32(sp)
    8000130c:	64e2                	ld	s1,24(sp)
    8000130e:	6942                	ld	s2,16(sp)
    80001310:	69a2                	ld	s3,8(sp)
    80001312:	6a02                	ld	s4,0(sp)
    80001314:	6145                	addi	sp,sp,48
    80001316:	8082                	ret

0000000080001318 <uvmfree>:

// Free user memory pages,
// then free page-table pages.
void
uvmfree(pagetable_t pagetable, uint64 sz)
{
    80001318:	1101                	addi	sp,sp,-32
    8000131a:	ec06                	sd	ra,24(sp)
    8000131c:	e822                	sd	s0,16(sp)
    8000131e:	e426                	sd	s1,8(sp)
    80001320:	1000                	addi	s0,sp,32
    80001322:	84aa                	mv	s1,a0
  if(sz > 0)
    80001324:	e989                	bnez	a1,80001336 <uvmfree+0x1e>
    uvmunmap(pagetable, 0, PGROUNDUP(sz)/PGSIZE, 1);
  freewalk(pagetable);
    80001326:	8526                	mv	a0,s1
    80001328:	f93ff0ef          	jal	ra,800012ba <freewalk>
}
    8000132c:	60e2                	ld	ra,24(sp)
    8000132e:	6442                	ld	s0,16(sp)
    80001330:	64a2                	ld	s1,8(sp)
    80001332:	6105                	addi	sp,sp,32
    80001334:	8082                	ret
    uvmunmap(pagetable, 0, PGROUNDUP(sz)/PGSIZE, 1);
    80001336:	6605                	lui	a2,0x1
    80001338:	167d                	addi	a2,a2,-1
    8000133a:	962e                	add	a2,a2,a1
    8000133c:	4685                	li	a3,1
    8000133e:	8231                	srli	a2,a2,0xc
    80001340:	4581                	li	a1,0
    80001342:	e1fff0ef          	jal	ra,80001160 <uvmunmap>
    80001346:	b7c5                	j	80001326 <uvmfree+0xe>

0000000080001348 <uvmcopy>:
  pte_t *pte;
  uint64 pa, i;
  uint flags;
  char *mem;

  for(i = 0; i < sz; i += PGSIZE){
    80001348:	ce49                	beqz	a2,800013e2 <uvmcopy+0x9a>
{
    8000134a:	715d                	addi	sp,sp,-80
    8000134c:	e486                	sd	ra,72(sp)
    8000134e:	e0a2                	sd	s0,64(sp)
    80001350:	fc26                	sd	s1,56(sp)
    80001352:	f84a                	sd	s2,48(sp)
    80001354:	f44e                	sd	s3,40(sp)
    80001356:	f052                	sd	s4,32(sp)
    80001358:	ec56                	sd	s5,24(sp)
    8000135a:	e85a                	sd	s6,16(sp)
    8000135c:	e45e                	sd	s7,8(sp)
    8000135e:	0880                	addi	s0,sp,80
    80001360:	8aaa                	mv	s5,a0
    80001362:	8b2e                	mv	s6,a1
    80001364:	8a32                	mv	s4,a2
  for(i = 0; i < sz; i += PGSIZE){
    80001366:	4481                	li	s1,0
    80001368:	a029                	j	80001372 <uvmcopy+0x2a>
    8000136a:	6785                	lui	a5,0x1
    8000136c:	94be                	add	s1,s1,a5
    8000136e:	0544fe63          	bgeu	s1,s4,800013ca <uvmcopy+0x82>
    if((pte = walk(old, i, 0)) == 0)
    80001372:	4601                	li	a2,0
    80001374:	85a6                	mv	a1,s1
    80001376:	8556                	mv	a0,s5
    80001378:	b45ff0ef          	jal	ra,80000ebc <walk>
    8000137c:	d57d                	beqz	a0,8000136a <uvmcopy+0x22>
      continue;   // page table entry hasn't been allocated
    if((*pte & PTE_V) == 0)
    8000137e:	6118                	ld	a4,0(a0)
    80001380:	00177793          	andi	a5,a4,1
    80001384:	d3fd                	beqz	a5,8000136a <uvmcopy+0x22>
      continue;   // physical page hasn't been allocated
    pa = PTE2PA(*pte);
    80001386:	00a75593          	srli	a1,a4,0xa
    8000138a:	00c59b93          	slli	s7,a1,0xc
    flags = PTE_FLAGS(*pte);
    8000138e:	3ff77913          	andi	s2,a4,1023
    if((mem = kalloc()) == 0)
    80001392:	f0aff0ef          	jal	ra,80000a9c <kalloc>
    80001396:	89aa                	mv	s3,a0
    80001398:	c105                	beqz	a0,800013b8 <uvmcopy+0x70>
      goto err;
    memmove(mem, (char*)pa, PGSIZE);
    8000139a:	6605                	lui	a2,0x1
    8000139c:	85de                	mv	a1,s7
    8000139e:	8ffff0ef          	jal	ra,80000c9c <memmove>
    if(mappages(new, i, PGSIZE, (uint64)mem, flags) != 0){
    800013a2:	874a                	mv	a4,s2
    800013a4:	86ce                	mv	a3,s3
    800013a6:	6605                	lui	a2,0x1
    800013a8:	85a6                	mv	a1,s1
    800013aa:	855a                	mv	a0,s6
    800013ac:	be9ff0ef          	jal	ra,80000f94 <mappages>
    800013b0:	dd4d                	beqz	a0,8000136a <uvmcopy+0x22>
      kfree(mem);
    800013b2:	854e                	mv	a0,s3
    800013b4:	e08ff0ef          	jal	ra,800009bc <kfree>
    }
  }
  return 0;

 err:
  uvmunmap(new, 0, i / PGSIZE, 1);
    800013b8:	4685                	li	a3,1
    800013ba:	00c4d613          	srli	a2,s1,0xc
    800013be:	4581                	li	a1,0
    800013c0:	855a                	mv	a0,s6
    800013c2:	d9fff0ef          	jal	ra,80001160 <uvmunmap>
  return -1;
    800013c6:	557d                	li	a0,-1
    800013c8:	a011                	j	800013cc <uvmcopy+0x84>
  return 0;
    800013ca:	4501                	li	a0,0
}
    800013cc:	60a6                	ld	ra,72(sp)
    800013ce:	6406                	ld	s0,64(sp)
    800013d0:	74e2                	ld	s1,56(sp)
    800013d2:	7942                	ld	s2,48(sp)
    800013d4:	79a2                	ld	s3,40(sp)
    800013d6:	7a02                	ld	s4,32(sp)
    800013d8:	6ae2                	ld	s5,24(sp)
    800013da:	6b42                	ld	s6,16(sp)
    800013dc:	6ba2                	ld	s7,8(sp)
    800013de:	6161                	addi	sp,sp,80
    800013e0:	8082                	ret
  return 0;
    800013e2:	4501                	li	a0,0
}
    800013e4:	8082                	ret

00000000800013e6 <uvmclear>:

// mark a PTE invalid for user access.
// used by exec for the user stack guard page.
void
uvmclear(pagetable_t pagetable, uint64 va)
{
    800013e6:	1141                	addi	sp,sp,-16
    800013e8:	e406                	sd	ra,8(sp)
    800013ea:	e022                	sd	s0,0(sp)
    800013ec:	0800                	addi	s0,sp,16
  pte_t *pte;
  
  pte = walk(pagetable, va, 0);
    800013ee:	4601                	li	a2,0
    800013f0:	acdff0ef          	jal	ra,80000ebc <walk>
  if(pte == 0)
    800013f4:	c901                	beqz	a0,80001404 <uvmclear+0x1e>
    panic("uvmclear");
  *pte &= ~PTE_U;
    800013f6:	611c                	ld	a5,0(a0)
    800013f8:	9bbd                	andi	a5,a5,-17
    800013fa:	e11c                	sd	a5,0(a0)
}
    800013fc:	60a2                	ld	ra,8(sp)
    800013fe:	6402                	ld	s0,0(sp)
    80001400:	0141                	addi	sp,sp,16
    80001402:	8082                	ret
    panic("uvmclear");
    80001404:	00007517          	auipc	a0,0x7
    80001408:	d5c50513          	addi	a0,a0,-676 # 80008160 <digits+0x128>
    8000140c:	b7eff0ef          	jal	ra,8000078a <panic>

0000000080001410 <copyinstr>:
copyinstr(pagetable_t pagetable, char *dst, uint64 srcva, uint64 max)
{
  uint64 n, va0, pa0;
  int got_null = 0;

  while(got_null == 0 && max > 0){
    80001410:	c2d5                	beqz	a3,800014b4 <copyinstr+0xa4>
{
    80001412:	715d                	addi	sp,sp,-80
    80001414:	e486                	sd	ra,72(sp)
    80001416:	e0a2                	sd	s0,64(sp)
    80001418:	fc26                	sd	s1,56(sp)
    8000141a:	f84a                	sd	s2,48(sp)
    8000141c:	f44e                	sd	s3,40(sp)
    8000141e:	f052                	sd	s4,32(sp)
    80001420:	ec56                	sd	s5,24(sp)
    80001422:	e85a                	sd	s6,16(sp)
    80001424:	e45e                	sd	s7,8(sp)
    80001426:	0880                	addi	s0,sp,80
    80001428:	8a2a                	mv	s4,a0
    8000142a:	8b2e                	mv	s6,a1
    8000142c:	8bb2                	mv	s7,a2
    8000142e:	84b6                	mv	s1,a3
    va0 = PGROUNDDOWN(srcva);
    80001430:	7afd                	lui	s5,0xfffff
    pa0 = walkaddr(pagetable, va0);
    if(pa0 == 0)
      return -1;
    n = PGSIZE - (srcva - va0);
    80001432:	6985                	lui	s3,0x1
    80001434:	a035                	j	80001460 <copyinstr+0x50>
      n = max;

    char *p = (char *) (pa0 + (srcva - va0));
    while(n > 0){
      if(*p == '\0'){
        *dst = '\0';
    80001436:	00078023          	sb	zero,0(a5) # 1000 <_entry-0x7ffff000>
    8000143a:	4785                	li	a5,1
      dst++;
    }

    srcva = va0 + PGSIZE;
  }
  if(got_null){
    8000143c:	0017b793          	seqz	a5,a5
    80001440:	40f00533          	neg	a0,a5
    return 0;
  } else {
    return -1;
  }
}
    80001444:	60a6                	ld	ra,72(sp)
    80001446:	6406                	ld	s0,64(sp)
    80001448:	74e2                	ld	s1,56(sp)
    8000144a:	7942                	ld	s2,48(sp)
    8000144c:	79a2                	ld	s3,40(sp)
    8000144e:	7a02                	ld	s4,32(sp)
    80001450:	6ae2                	ld	s5,24(sp)
    80001452:	6b42                	ld	s6,16(sp)
    80001454:	6ba2                	ld	s7,8(sp)
    80001456:	6161                	addi	sp,sp,80
    80001458:	8082                	ret
    srcva = va0 + PGSIZE;
    8000145a:	01390bb3          	add	s7,s2,s3
  while(got_null == 0 && max > 0){
    8000145e:	c4b9                	beqz	s1,800014ac <copyinstr+0x9c>
    va0 = PGROUNDDOWN(srcva);
    80001460:	015bf933          	and	s2,s7,s5
    pa0 = walkaddr(pagetable, va0);
    80001464:	85ca                	mv	a1,s2
    80001466:	8552                	mv	a0,s4
    80001468:	aefff0ef          	jal	ra,80000f56 <walkaddr>
    if(pa0 == 0)
    8000146c:	c131                	beqz	a0,800014b0 <copyinstr+0xa0>
    n = PGSIZE - (srcva - va0);
    8000146e:	41790833          	sub	a6,s2,s7
    80001472:	984e                	add	a6,a6,s3
    if(n > max)
    80001474:	0104f363          	bgeu	s1,a6,8000147a <copyinstr+0x6a>
    80001478:	8826                	mv	a6,s1
    char *p = (char *) (pa0 + (srcva - va0));
    8000147a:	955e                	add	a0,a0,s7
    8000147c:	41250533          	sub	a0,a0,s2
    while(n > 0){
    80001480:	fc080de3          	beqz	a6,8000145a <copyinstr+0x4a>
    80001484:	985a                	add	a6,a6,s6
    80001486:	87da                	mv	a5,s6
      if(*p == '\0'){
    80001488:	41650633          	sub	a2,a0,s6
    8000148c:	14fd                	addi	s1,s1,-1
    8000148e:	9b26                	add	s6,s6,s1
    80001490:	00f60733          	add	a4,a2,a5
    80001494:	00074703          	lbu	a4,0(a4)
    80001498:	df59                	beqz	a4,80001436 <copyinstr+0x26>
        *dst = *p;
    8000149a:	00e78023          	sb	a4,0(a5)
      --max;
    8000149e:	40fb04b3          	sub	s1,s6,a5
      dst++;
    800014a2:	0785                	addi	a5,a5,1
    while(n > 0){
    800014a4:	ff0796e3          	bne	a5,a6,80001490 <copyinstr+0x80>
      dst++;
    800014a8:	8b42                	mv	s6,a6
    800014aa:	bf45                	j	8000145a <copyinstr+0x4a>
    800014ac:	4781                	li	a5,0
    800014ae:	b779                	j	8000143c <copyinstr+0x2c>
      return -1;
    800014b0:	557d                	li	a0,-1
    800014b2:	bf49                	j	80001444 <copyinstr+0x34>
  int got_null = 0;
    800014b4:	4781                	li	a5,0
  if(got_null){
    800014b6:	0017b793          	seqz	a5,a5
    800014ba:	40f00533          	neg	a0,a5
}
    800014be:	8082                	ret

00000000800014c0 <ismapped>:
//   return mem;
// }

int
ismapped(pagetable_t pagetable, uint64 va)
{
    800014c0:	1141                	addi	sp,sp,-16
    800014c2:	e406                	sd	ra,8(sp)
    800014c4:	e022                	sd	s0,0(sp)
    800014c6:	0800                	addi	s0,sp,16
  pte_t *pte = walk(pagetable, va, 0);
    800014c8:	4601                	li	a2,0
    800014ca:	9f3ff0ef          	jal	ra,80000ebc <walk>
  if (pte == 0) {
    800014ce:	c519                	beqz	a0,800014dc <ismapped+0x1c>
    return 0;
  }
  if (*pte & PTE_V){
    800014d0:	6108                	ld	a0,0(a0)
    return 0;
    800014d2:	8905                	andi	a0,a0,1
    return 1;
  }
  return 0;
}
    800014d4:	60a2                	ld	ra,8(sp)
    800014d6:	6402                	ld	s0,0(sp)
    800014d8:	0141                	addi	sp,sp,16
    800014da:	8082                	ret
    return 0;
    800014dc:	4501                	li	a0,0
    800014de:	bfdd                	j	800014d4 <ismapped+0x14>

00000000800014e0 <add_resident_page>:

//changes 
// Add a page to the resident set
void add_resident_page(struct proc *p, uint64 va, int seq) {
    800014e0:	1141                	addi	sp,sp,-16
    800014e2:	e422                	sd	s0,8(sp)
    800014e4:	0800                	addi	s0,sp,16
  if(p->num_resident < MAX_RESIDENT_PAGES) {
    800014e6:	7c052703          	lw	a4,1984(a0)
    800014ea:	03f00793          	li	a5,63
    800014ee:	02e7c263          	blt	a5,a4,80001512 <add_resident_page+0x32>
    p->resident_pages[p->num_resident].va = va;
    800014f2:	00171793          	slli	a5,a4,0x1
    800014f6:	97ba                	add	a5,a5,a4
    800014f8:	078e                	slli	a5,a5,0x3
    800014fa:	97aa                	add	a5,a5,a0
    800014fc:	1cb7b023          	sd	a1,448(a5)
    p->resident_pages[p->num_resident].seq = seq;
    80001500:	1cc7a423          	sw	a2,456(a5)
    p->resident_pages[p->num_resident].is_dirty = 0;
    80001504:	1c07a623          	sw	zero,460(a5)
    p->resident_pages[p->num_resident].last_used_seq = seq;  // ADD THIS LINE
    80001508:	1cc7aa23          	sw	a2,468(a5)
    p->num_resident++;
    8000150c:	2705                	addiw	a4,a4,1
    8000150e:	7ce52023          	sw	a4,1984(a0)
  }
}
    80001512:	6422                	ld	s0,8(sp)
    80001514:	0141                	addi	sp,sp,16
    80001516:	8082                	ret

0000000080001518 <evict_page_fifo>:

// Find and evict the oldest resident page using FIFO
// Returns the physical address of the freed page
char* evict_page_fifo(struct proc *p, pagetable_t pagetable) {
    80001518:	715d                	addi	sp,sp,-80
    8000151a:	e486                	sd	ra,72(sp)
    8000151c:	e0a2                	sd	s0,64(sp)
    8000151e:	fc26                	sd	s1,56(sp)
    80001520:	f84a                	sd	s2,48(sp)
    80001522:	f44e                	sd	s3,40(sp)
    80001524:	f052                	sd	s4,32(sp)
    80001526:	ec56                	sd	s5,24(sp)
    80001528:	e85a                	sd	s6,16(sp)
    8000152a:	e45e                	sd	s7,8(sp)
    8000152c:	0880                	addi	s0,sp,80
    8000152e:	8aae                	mv	s5,a1
  if(p->num_resident == 0)
    80001530:	7c052583          	lw	a1,1984(a0)
    80001534:	1a058a63          	beqz	a1,800016e8 <evict_page_fifo+0x1d0>
    80001538:	84aa                	mv	s1,a0
    return 0;
  
  // Find victim with lowest sequence number (oldest)
  int victim_idx = 0;
  int min_seq = p->resident_pages[0].seq;
    8000153a:	1c852603          	lw	a2,456(a0)
  
  for(int i = 1; i < p->num_resident; i++) {
    8000153e:	4785                	li	a5,1
    80001540:	02b7d063          	bge	a5,a1,80001560 <evict_page_fifo+0x48>
    80001544:	1e050713          	addi	a4,a0,480
  int victim_idx = 0;
    80001548:	4901                	li	s2,0
    8000154a:	a029                	j	80001554 <evict_page_fifo+0x3c>
  for(int i = 1; i < p->num_resident; i++) {
    8000154c:	2785                	addiw	a5,a5,1
    8000154e:	0761                	addi	a4,a4,24
    80001550:	00f58963          	beq	a1,a5,80001562 <evict_page_fifo+0x4a>
    if(p->resident_pages[i].seq < min_seq) {
    80001554:	4314                	lw	a3,0(a4)
    80001556:	fec6dbe3          	bge	a3,a2,8000154c <evict_page_fifo+0x34>
      min_seq = p->resident_pages[i].seq;
    8000155a:	8636                	mv	a2,a3
    if(p->resident_pages[i].seq < min_seq) {
    8000155c:	893e                	mv	s2,a5
    8000155e:	b7fd                	j	8000154c <evict_page_fifo+0x34>
  int victim_idx = 0;
    80001560:	4901                	li	s2,0
      victim_idx = i;
    }
  }
  
  uint64 victim_va = p->resident_pages[victim_idx].va;
    80001562:	00191793          	slli	a5,s2,0x1
    80001566:	97ca                	add	a5,a5,s2
    80001568:	078e                	slli	a5,a5,0x3
    8000156a:	97a6                	add	a5,a5,s1
    8000156c:	1c07bb03          	ld	s6,448(a5)
  int victim_seq = p->resident_pages[victim_idx].seq;
  int is_dirty = p->resident_pages[victim_idx].is_dirty;
    80001570:	1cc7a983          	lw	s3,460(a5)
  
  // Log victim selection
  printf("[pid %d] VICTIM va=0x%lx seq=%d algo=FIFO\n", p->pid, victim_va, victim_seq);
    80001574:	1c87a683          	lw	a3,456(a5)
    80001578:	865a                	mv	a2,s6
    8000157a:	588c                	lw	a1,48(s1)
    8000157c:	00007517          	auipc	a0,0x7
    80001580:	bf450513          	addi	a0,a0,-1036 # 80008170 <digits+0x138>
    80001584:	f41fe0ef          	jal	ra,800004c4 <printf>
  printf("[pid %d] EVICT va=0x%lx state=%s\n", p->pid, victim_va, is_dirty ? "dirty" : "clean");
    80001588:	588c                	lw	a1,48(s1)
    8000158a:	16099163          	bnez	s3,800016ec <evict_page_fifo+0x1d4>
    8000158e:	00007697          	auipc	a3,0x7
    80001592:	cba68693          	addi	a3,a3,-838 # 80008248 <digits+0x210>
    80001596:	865a                	mv	a2,s6
    80001598:	00007517          	auipc	a0,0x7
    8000159c:	cb850513          	addi	a0,a0,-840 # 80008250 <digits+0x218>
    800015a0:	f25fe0ef          	jal	ra,800004c4 <printf>
  
  // Get physical address before unmapping
  uint64 pa = walkaddr(pagetable, victim_va);
    800015a4:	85da                	mv	a1,s6
    800015a6:	8556                	mv	a0,s5
    800015a8:	9afff0ef          	jal	ra,80000f56 <walkaddr>
    800015ac:	89aa                	mv	s3,a0
      printf("[pid %d] ERROR: no swap file\n", p->pid);
      setkilled(p);
      return 0;
    }
  } else {
    printf("[pid %d] DISCARD va=0x%lx\n", p->pid, victim_va);
    800015ae:	865a                	mv	a2,s6
    800015b0:	588c                	lw	a1,48(s1)
    800015b2:	00007517          	auipc	a0,0x7
    800015b6:	cc650513          	addi	a0,a0,-826 # 80008278 <digits+0x240>
    800015ba:	f0bfe0ef          	jal	ra,800004c4 <printf>
    800015be:	a059                	j	80001644 <evict_page_fifo+0x12c>
    if(slot == -1) {
    800015c0:	57fd                	li	a5,-1
    800015c2:	16fa0363          	beq	s4,a5,80001728 <evict_page_fifo+0x210>
    if(p->swapfile) {
    800015c6:	6785                	lui	a5,0x1
    800015c8:	97a6                	add	a5,a5,s1
    800015ca:	bd07bb83          	ld	s7,-1072(a5) # bd0 <_entry-0x7ffff430>
    800015ce:	100b8263          	beqz	s7,800016d2 <evict_page_fifo+0x1ba>
      p->swapfile->off = slot * PGSIZE;
    800015d2:	00ca179b          	slliw	a5,s4,0xc
    800015d6:	02fba023          	sw	a5,32(s7) # 1020 <_entry-0x7fffefe0>
      int written = filewrite(p->swapfile, pa, PGSIZE);
    800015da:	6b85                	lui	s7,0x1
    800015dc:	017487b3          	add	a5,s1,s7
    800015e0:	6605                	lui	a2,0x1
    800015e2:	85ce                	mv	a1,s3
    800015e4:	bd07b503          	ld	a0,-1072(a5)
    800015e8:	10f030ef          	jal	ra,80004ef6 <filewrite>
      if(written != PGSIZE) {
    800015ec:	0d751763          	bne	a0,s7,800016ba <evict_page_fifo+0x1a2>
      p->swap_slots[slot] = 1;
    800015f0:	2f8a0793          	addi	a5,s4,760 # fffffffffffff2f8 <end+0xffffffff7ff730d0>
    800015f4:	078a                	slli	a5,a5,0x2
    800015f6:	97a6                	add	a5,a5,s1
    800015f8:	4705                	li	a4,1
    800015fa:	c7d8                	sw	a4,12(a5)
      p->num_swap_slots_used++;
    800015fc:	6789                	lui	a5,0x2
    800015fe:	97a6                	add	a5,a5,s1
    80001600:	bec7a703          	lw	a4,-1044(a5) # 1bec <_entry-0x7fffe414>
    80001604:	2705                	addiw	a4,a4,1
    80001606:	bee7a623          	sw	a4,-1044(a5)
      if(p->num_swapped < MAX_RESIDENT_PAGES) {
    8000160a:	6785                	lui	a5,0x1
    8000160c:	97a6                	add	a5,a5,s1
    8000160e:	bc87a783          	lw	a5,-1080(a5) # bc8 <_entry-0x7ffff438>
    80001612:	03f00713          	li	a4,63
    80001616:	00f74e63          	blt	a4,a5,80001632 <evict_page_fifo+0x11a>
        p->swapped_pages[p->num_swapped].va = victim_va;
    8000161a:	00479713          	slli	a4,a5,0x4
    8000161e:	9726                	add	a4,a4,s1
    80001620:	7d673423          	sd	s6,1992(a4)
        p->swapped_pages[p->num_swapped].swap_slot = slot;
    80001624:	7d472823          	sw	s4,2000(a4)
        p->num_swapped++;
    80001628:	6705                	lui	a4,0x1
    8000162a:	9726                	add	a4,a4,s1
    8000162c:	2785                	addiw	a5,a5,1
    8000162e:	bcf72423          	sw	a5,-1080(a4) # bc8 <_entry-0x7ffff438>
      printf("[pid %d] SWAPOUT va=0x%lx slot=%d\n", p->pid, victim_va, slot);
    80001632:	86d2                	mv	a3,s4
    80001634:	865a                	mv	a2,s6
    80001636:	588c                	lw	a1,48(s1)
    80001638:	00007517          	auipc	a0,0x7
    8000163c:	bc850513          	addi	a0,a0,-1080 # 80008200 <digits+0x1c8>
    80001640:	e85fe0ef          	jal	ra,800004c4 <printf>
  }
  
  // Unmap the page
  uvmunmap(pagetable, victim_va, 1, 0);  // Don't free yet
    80001644:	4681                	li	a3,0
    80001646:	4605                	li	a2,1
    80001648:	85da                	mv	a1,s6
    8000164a:	8556                	mv	a0,s5
    8000164c:	b15ff0ef          	jal	ra,80001160 <uvmunmap>
  
  // Remove from resident set by shifting array
  for(int i = victim_idx; i < p->num_resident - 1; i++) {
    80001650:	7c04a703          	lw	a4,1984(s1)
    80001654:	fff7061b          	addiw	a2,a4,-1
    80001658:	0006079b          	sext.w	a5,a2
    8000165c:	04f95063          	bge	s2,a5,8000169c <evict_page_fifo+0x184>
    80001660:	00191793          	slli	a5,s2,0x1
    80001664:	97ca                	add	a5,a5,s2
    80001666:	078e                	slli	a5,a5,0x3
    80001668:	1c078793          	addi	a5,a5,448
    8000166c:	97a6                	add	a5,a5,s1
    8000166e:	ffe7069b          	addiw	a3,a4,-2
    80001672:	412686bb          	subw	a3,a3,s2
    80001676:	1682                	slli	a3,a3,0x20
    80001678:	9281                	srli	a3,a3,0x20
    8000167a:	9936                	add	s2,s2,a3
    8000167c:	00191693          	slli	a3,s2,0x1
    80001680:	96ca                	add	a3,a3,s2
    80001682:	068e                	slli	a3,a3,0x3
    80001684:	1d848713          	addi	a4,s1,472
    80001688:	96ba                	add	a3,a3,a4
    p->resident_pages[i] = p->resident_pages[i + 1];
    8000168a:	6f98                	ld	a4,24(a5)
    8000168c:	e398                	sd	a4,0(a5)
    8000168e:	7398                	ld	a4,32(a5)
    80001690:	e798                	sd	a4,8(a5)
    80001692:	7798                	ld	a4,40(a5)
    80001694:	eb98                	sd	a4,16(a5)
  for(int i = victim_idx; i < p->num_resident - 1; i++) {
    80001696:	07e1                	addi	a5,a5,24
    80001698:	fed799e3          	bne	a5,a3,8000168a <evict_page_fifo+0x172>
  }
  p->num_resident--;
    8000169c:	7cc4a023          	sw	a2,1984(s1)
  
  return (char*)pa;
    800016a0:	8bce                	mv	s7,s3
}
    800016a2:	855e                	mv	a0,s7
    800016a4:	60a6                	ld	ra,72(sp)
    800016a6:	6406                	ld	s0,64(sp)
    800016a8:	74e2                	ld	s1,56(sp)
    800016aa:	7942                	ld	s2,48(sp)
    800016ac:	79a2                	ld	s3,40(sp)
    800016ae:	7a02                	ld	s4,32(sp)
    800016b0:	6ae2                	ld	s5,24(sp)
    800016b2:	6b42                	ld	s6,16(sp)
    800016b4:	6ba2                	ld	s7,8(sp)
    800016b6:	6161                	addi	sp,sp,80
    800016b8:	8082                	ret
        printf("[pid %d] ERROR: swap write failed\n", p->pid);
    800016ba:	588c                	lw	a1,48(s1)
    800016bc:	00007517          	auipc	a0,0x7
    800016c0:	b1c50513          	addi	a0,a0,-1252 # 800081d8 <digits+0x1a0>
    800016c4:	e01fe0ef          	jal	ra,800004c4 <printf>
        setkilled(p);
    800016c8:	8526                	mv	a0,s1
    800016ca:	608010ef          	jal	ra,80002cd2 <setkilled>
        return 0;
    800016ce:	4b81                	li	s7,0
    800016d0:	bfc9                	j	800016a2 <evict_page_fifo+0x18a>
      printf("[pid %d] ERROR: no swap file\n", p->pid);
    800016d2:	588c                	lw	a1,48(s1)
    800016d4:	00007517          	auipc	a0,0x7
    800016d8:	b5450513          	addi	a0,a0,-1196 # 80008228 <digits+0x1f0>
    800016dc:	de9fe0ef          	jal	ra,800004c4 <printf>
      setkilled(p);
    800016e0:	8526                	mv	a0,s1
    800016e2:	5f0010ef          	jal	ra,80002cd2 <setkilled>
      return 0;
    800016e6:	bf75                	j	800016a2 <evict_page_fifo+0x18a>
    return 0;
    800016e8:	4b81                	li	s7,0
    800016ea:	bf65                	j	800016a2 <evict_page_fifo+0x18a>
  printf("[pid %d] EVICT va=0x%lx state=%s\n", p->pid, victim_va, is_dirty ? "dirty" : "clean");
    800016ec:	00007697          	auipc	a3,0x7
    800016f0:	bac68693          	addi	a3,a3,-1108 # 80008298 <digits+0x260>
    800016f4:	865a                	mv	a2,s6
    800016f6:	00007517          	auipc	a0,0x7
    800016fa:	b5a50513          	addi	a0,a0,-1190 # 80008250 <digits+0x218>
    800016fe:	dc7fe0ef          	jal	ra,800004c4 <printf>
  uint64 pa = walkaddr(pagetable, victim_va);
    80001702:	85da                	mv	a1,s6
    80001704:	8556                	mv	a0,s5
    80001706:	851ff0ef          	jal	ra,80000f56 <walkaddr>
    8000170a:	89aa                	mv	s3,a0
  if(is_dirty) {
    8000170c:	6785                	lui	a5,0x1
    8000170e:	bec78793          	addi	a5,a5,-1044 # bec <_entry-0x7ffff414>
    80001712:	97a6                	add	a5,a5,s1
  uint64 pa = walkaddr(pagetable, victim_va);
    80001714:	4a01                	li	s4,0
    for(int i = 0; i < 1024; i++) {
    80001716:	40000693          	li	a3,1024
      if(p->swap_slots[i] == 0) {
    8000171a:	4398                	lw	a4,0(a5)
    8000171c:	ea0702e3          	beqz	a4,800015c0 <evict_page_fifo+0xa8>
    for(int i = 0; i < 1024; i++) {
    80001720:	2a05                	addiw	s4,s4,1
    80001722:	0791                	addi	a5,a5,4
    80001724:	feda1be3          	bne	s4,a3,8000171a <evict_page_fifo+0x202>
      printf("[pid %d] SWAPFULL\n", p->pid);
    80001728:	588c                	lw	a1,48(s1)
    8000172a:	00007517          	auipc	a0,0x7
    8000172e:	a7650513          	addi	a0,a0,-1418 # 800081a0 <digits+0x168>
    80001732:	d93fe0ef          	jal	ra,800004c4 <printf>
      printf("[pid %d] KILL swap-exhausted\n", p->pid);
    80001736:	588c                	lw	a1,48(s1)
    80001738:	00007517          	auipc	a0,0x7
    8000173c:	a8050513          	addi	a0,a0,-1408 # 800081b8 <digits+0x180>
    80001740:	d85fe0ef          	jal	ra,800004c4 <printf>
      setkilled(p);
    80001744:	8526                	mv	a0,s1
    80001746:	58c010ef          	jal	ra,80002cd2 <setkilled>
      return 0;
    8000174a:	4b81                	li	s7,0
    8000174c:	bf99                	j	800016a2 <evict_page_fifo+0x18a>

000000008000174e <evict_page_lru>:
// LRU-based page replacement
char* evict_page_lru(struct proc *p, pagetable_t pagetable) {
    8000174e:	715d                	addi	sp,sp,-80
    80001750:	e486                	sd	ra,72(sp)
    80001752:	e0a2                	sd	s0,64(sp)
    80001754:	fc26                	sd	s1,56(sp)
    80001756:	f84a                	sd	s2,48(sp)
    80001758:	f44e                	sd	s3,40(sp)
    8000175a:	f052                	sd	s4,32(sp)
    8000175c:	ec56                	sd	s5,24(sp)
    8000175e:	e85a                	sd	s6,16(sp)
    80001760:	e45e                	sd	s7,8(sp)
    80001762:	0880                	addi	s0,sp,80
    80001764:	8aae                	mv	s5,a1
  if(p->num_resident == 0)
    80001766:	7c052583          	lw	a1,1984(a0)
    8000176a:	1a058a63          	beqz	a1,8000191e <evict_page_lru+0x1d0>
    8000176e:	84aa                	mv	s1,a0
    return 0;
  
  // Find victim with lowest last_used_seq (least recently used)
  int victim_idx = 0;
  int min_last_used = p->resident_pages[0].last_used_seq;
    80001770:	1d452603          	lw	a2,468(a0)
  
  for(int i = 1; i < p->num_resident; i++) {
    80001774:	4785                	li	a5,1
    80001776:	02b7d063          	bge	a5,a1,80001796 <evict_page_lru+0x48>
    8000177a:	1ec50713          	addi	a4,a0,492
  int victim_idx = 0;
    8000177e:	4901                	li	s2,0
    80001780:	a029                	j	8000178a <evict_page_lru+0x3c>
  for(int i = 1; i < p->num_resident; i++) {
    80001782:	2785                	addiw	a5,a5,1
    80001784:	0761                	addi	a4,a4,24
    80001786:	00f58963          	beq	a1,a5,80001798 <evict_page_lru+0x4a>
    if(p->resident_pages[i].last_used_seq < min_last_used) {
    8000178a:	4314                	lw	a3,0(a4)
    8000178c:	fec6dbe3          	bge	a3,a2,80001782 <evict_page_lru+0x34>
      min_last_used = p->resident_pages[i].last_used_seq;
    80001790:	8636                	mv	a2,a3
    if(p->resident_pages[i].last_used_seq < min_last_used) {
    80001792:	893e                	mv	s2,a5
    80001794:	b7fd                	j	80001782 <evict_page_lru+0x34>
  int victim_idx = 0;
    80001796:	4901                	li	s2,0
      victim_idx = i;
    }
  }
  
  uint64 victim_va = p->resident_pages[victim_idx].va;
    80001798:	00191793          	slli	a5,s2,0x1
    8000179c:	97ca                	add	a5,a5,s2
    8000179e:	078e                	slli	a5,a5,0x3
    800017a0:	97a6                	add	a5,a5,s1
    800017a2:	1c07bb03          	ld	s6,448(a5)
  int victim_seq = p->resident_pages[victim_idx].seq;
  int is_dirty = p->resident_pages[victim_idx].is_dirty;
    800017a6:	1cc7a983          	lw	s3,460(a5)
  
  // Log victim selection with algo=LRU
  printf("[pid %d] VICTIM va=0x%lx seq=%d algo=LRU\n", p->pid, victim_va, victim_seq);
    800017aa:	1c87a683          	lw	a3,456(a5)
    800017ae:	865a                	mv	a2,s6
    800017b0:	588c                	lw	a1,48(s1)
    800017b2:	00007517          	auipc	a0,0x7
    800017b6:	aee50513          	addi	a0,a0,-1298 # 800082a0 <digits+0x268>
    800017ba:	d0bfe0ef          	jal	ra,800004c4 <printf>
  printf("[pid %d] EVICT va=0x%lx state=%s\n", p->pid, victim_va, is_dirty ? "dirty" : "clean");
    800017be:	588c                	lw	a1,48(s1)
    800017c0:	16099163          	bnez	s3,80001922 <evict_page_lru+0x1d4>
    800017c4:	00007697          	auipc	a3,0x7
    800017c8:	a8468693          	addi	a3,a3,-1404 # 80008248 <digits+0x210>
    800017cc:	865a                	mv	a2,s6
    800017ce:	00007517          	auipc	a0,0x7
    800017d2:	a8250513          	addi	a0,a0,-1406 # 80008250 <digits+0x218>
    800017d6:	ceffe0ef          	jal	ra,800004c4 <printf>
  
  uint64 pa = walkaddr(pagetable, victim_va);
    800017da:	85da                	mv	a1,s6
    800017dc:	8556                	mv	a0,s5
    800017de:	f78ff0ef          	jal	ra,80000f56 <walkaddr>
    800017e2:	89aa                	mv	s3,a0
      setkilled(p);
      return 0;
    }
  } else {
    // CLEAN PAGE - Just discard
    printf("[pid %d] DISCARD va=0x%lx\n", p->pid, victim_va);
    800017e4:	865a                	mv	a2,s6
    800017e6:	588c                	lw	a1,48(s1)
    800017e8:	00007517          	auipc	a0,0x7
    800017ec:	a9050513          	addi	a0,a0,-1392 # 80008278 <digits+0x240>
    800017f0:	cd5fe0ef          	jal	ra,800004c4 <printf>
    800017f4:	a059                	j	8000187a <evict_page_lru+0x12c>
    if(slot == -1) {
    800017f6:	57fd                	li	a5,-1
    800017f8:	16fa0363          	beq	s4,a5,8000195e <evict_page_lru+0x210>
    if(p->swapfile) {
    800017fc:	6785                	lui	a5,0x1
    800017fe:	97a6                	add	a5,a5,s1
    80001800:	bd07bb83          	ld	s7,-1072(a5) # bd0 <_entry-0x7ffff430>
    80001804:	100b8263          	beqz	s7,80001908 <evict_page_lru+0x1ba>
      p->swapfile->off = slot * PGSIZE;
    80001808:	00ca179b          	slliw	a5,s4,0xc
    8000180c:	02fba023          	sw	a5,32(s7) # 1020 <_entry-0x7fffefe0>
      int written = filewrite(p->swapfile, pa, PGSIZE);
    80001810:	6b85                	lui	s7,0x1
    80001812:	017487b3          	add	a5,s1,s7
    80001816:	6605                	lui	a2,0x1
    80001818:	85ce                	mv	a1,s3
    8000181a:	bd07b503          	ld	a0,-1072(a5)
    8000181e:	6d8030ef          	jal	ra,80004ef6 <filewrite>
      if(written != PGSIZE) {
    80001822:	0d751763          	bne	a0,s7,800018f0 <evict_page_lru+0x1a2>
      p->swap_slots[slot] = 1;
    80001826:	2f8a0793          	addi	a5,s4,760
    8000182a:	078a                	slli	a5,a5,0x2
    8000182c:	97a6                	add	a5,a5,s1
    8000182e:	4705                	li	a4,1
    80001830:	c7d8                	sw	a4,12(a5)
      p->num_swap_slots_used++;
    80001832:	6789                	lui	a5,0x2
    80001834:	97a6                	add	a5,a5,s1
    80001836:	bec7a703          	lw	a4,-1044(a5) # 1bec <_entry-0x7fffe414>
    8000183a:	2705                	addiw	a4,a4,1
    8000183c:	bee7a623          	sw	a4,-1044(a5)
      if(p->num_swapped < MAX_RESIDENT_PAGES) {
    80001840:	6785                	lui	a5,0x1
    80001842:	97a6                	add	a5,a5,s1
    80001844:	bc87a783          	lw	a5,-1080(a5) # bc8 <_entry-0x7ffff438>
    80001848:	03f00713          	li	a4,63
    8000184c:	00f74e63          	blt	a4,a5,80001868 <evict_page_lru+0x11a>
        p->swapped_pages[p->num_swapped].va = victim_va;
    80001850:	00479713          	slli	a4,a5,0x4
    80001854:	9726                	add	a4,a4,s1
    80001856:	7d673423          	sd	s6,1992(a4)
        p->swapped_pages[p->num_swapped].swap_slot = slot;
    8000185a:	7d472823          	sw	s4,2000(a4)
        p->num_swapped++;
    8000185e:	6705                	lui	a4,0x1
    80001860:	9726                	add	a4,a4,s1
    80001862:	2785                	addiw	a5,a5,1
    80001864:	bcf72423          	sw	a5,-1080(a4) # bc8 <_entry-0x7ffff438>
      printf("[pid %d] SWAPOUT va=0x%lx slot=%d\n", p->pid, victim_va, slot);
    80001868:	86d2                	mv	a3,s4
    8000186a:	865a                	mv	a2,s6
    8000186c:	588c                	lw	a1,48(s1)
    8000186e:	00007517          	auipc	a0,0x7
    80001872:	99250513          	addi	a0,a0,-1646 # 80008200 <digits+0x1c8>
    80001876:	c4ffe0ef          	jal	ra,800004c4 <printf>
  }
  
  uvmunmap(pagetable, victim_va, 1, 0);
    8000187a:	4681                	li	a3,0
    8000187c:	4605                	li	a2,1
    8000187e:	85da                	mv	a1,s6
    80001880:	8556                	mv	a0,s5
    80001882:	8dfff0ef          	jal	ra,80001160 <uvmunmap>
  
  for(int i = victim_idx; i < p->num_resident - 1; i++) {
    80001886:	7c04a703          	lw	a4,1984(s1)
    8000188a:	fff7061b          	addiw	a2,a4,-1
    8000188e:	0006079b          	sext.w	a5,a2
    80001892:	04f95063          	bge	s2,a5,800018d2 <evict_page_lru+0x184>
    80001896:	00191793          	slli	a5,s2,0x1
    8000189a:	97ca                	add	a5,a5,s2
    8000189c:	078e                	slli	a5,a5,0x3
    8000189e:	1c078793          	addi	a5,a5,448
    800018a2:	97a6                	add	a5,a5,s1
    800018a4:	ffe7069b          	addiw	a3,a4,-2
    800018a8:	412686bb          	subw	a3,a3,s2
    800018ac:	1682                	slli	a3,a3,0x20
    800018ae:	9281                	srli	a3,a3,0x20
    800018b0:	9936                	add	s2,s2,a3
    800018b2:	00191693          	slli	a3,s2,0x1
    800018b6:	96ca                	add	a3,a3,s2
    800018b8:	068e                	slli	a3,a3,0x3
    800018ba:	1d848713          	addi	a4,s1,472
    800018be:	96ba                	add	a3,a3,a4
    p->resident_pages[i] = p->resident_pages[i + 1];
    800018c0:	6f98                	ld	a4,24(a5)
    800018c2:	e398                	sd	a4,0(a5)
    800018c4:	7398                	ld	a4,32(a5)
    800018c6:	e798                	sd	a4,8(a5)
    800018c8:	7798                	ld	a4,40(a5)
    800018ca:	eb98                	sd	a4,16(a5)
  for(int i = victim_idx; i < p->num_resident - 1; i++) {
    800018cc:	07e1                	addi	a5,a5,24
    800018ce:	fed799e3          	bne	a5,a3,800018c0 <evict_page_lru+0x172>
  }
  p->num_resident--;
    800018d2:	7cc4a023          	sw	a2,1984(s1)
  
  return (char*)pa;
    800018d6:	8bce                	mv	s7,s3
}
    800018d8:	855e                	mv	a0,s7
    800018da:	60a6                	ld	ra,72(sp)
    800018dc:	6406                	ld	s0,64(sp)
    800018de:	74e2                	ld	s1,56(sp)
    800018e0:	7942                	ld	s2,48(sp)
    800018e2:	79a2                	ld	s3,40(sp)
    800018e4:	7a02                	ld	s4,32(sp)
    800018e6:	6ae2                	ld	s5,24(sp)
    800018e8:	6b42                	ld	s6,16(sp)
    800018ea:	6ba2                	ld	s7,8(sp)
    800018ec:	6161                	addi	sp,sp,80
    800018ee:	8082                	ret
        printf("[pid %d] ERROR: swap write failed\n", p->pid);
    800018f0:	588c                	lw	a1,48(s1)
    800018f2:	00007517          	auipc	a0,0x7
    800018f6:	8e650513          	addi	a0,a0,-1818 # 800081d8 <digits+0x1a0>
    800018fa:	bcbfe0ef          	jal	ra,800004c4 <printf>
        setkilled(p);
    800018fe:	8526                	mv	a0,s1
    80001900:	3d2010ef          	jal	ra,80002cd2 <setkilled>
        return 0;
    80001904:	4b81                	li	s7,0
    80001906:	bfc9                	j	800018d8 <evict_page_lru+0x18a>
      printf("[pid %d] ERROR: no swap file\n", p->pid);
    80001908:	588c                	lw	a1,48(s1)
    8000190a:	00007517          	auipc	a0,0x7
    8000190e:	91e50513          	addi	a0,a0,-1762 # 80008228 <digits+0x1f0>
    80001912:	bb3fe0ef          	jal	ra,800004c4 <printf>
      setkilled(p);
    80001916:	8526                	mv	a0,s1
    80001918:	3ba010ef          	jal	ra,80002cd2 <setkilled>
      return 0;
    8000191c:	bf75                	j	800018d8 <evict_page_lru+0x18a>
    return 0;
    8000191e:	4b81                	li	s7,0
    80001920:	bf65                	j	800018d8 <evict_page_lru+0x18a>
  printf("[pid %d] EVICT va=0x%lx state=%s\n", p->pid, victim_va, is_dirty ? "dirty" : "clean");
    80001922:	00007697          	auipc	a3,0x7
    80001926:	97668693          	addi	a3,a3,-1674 # 80008298 <digits+0x260>
    8000192a:	865a                	mv	a2,s6
    8000192c:	00007517          	auipc	a0,0x7
    80001930:	92450513          	addi	a0,a0,-1756 # 80008250 <digits+0x218>
    80001934:	b91fe0ef          	jal	ra,800004c4 <printf>
  uint64 pa = walkaddr(pagetable, victim_va);
    80001938:	85da                	mv	a1,s6
    8000193a:	8556                	mv	a0,s5
    8000193c:	e1aff0ef          	jal	ra,80000f56 <walkaddr>
    80001940:	89aa                	mv	s3,a0
  if(is_dirty) {
    80001942:	6785                	lui	a5,0x1
    80001944:	bec78793          	addi	a5,a5,-1044 # bec <_entry-0x7ffff414>
    80001948:	97a6                	add	a5,a5,s1
  uint64 pa = walkaddr(pagetable, victim_va);
    8000194a:	4a01                	li	s4,0
    for(int i = 0; i < 1024; i++) {
    8000194c:	40000693          	li	a3,1024
      if(p->swap_slots[i] == 0) {
    80001950:	4398                	lw	a4,0(a5)
    80001952:	ea0702e3          	beqz	a4,800017f6 <evict_page_lru+0xa8>
    for(int i = 0; i < 1024; i++) {
    80001956:	2a05                	addiw	s4,s4,1
    80001958:	0791                	addi	a5,a5,4
    8000195a:	feda1be3          	bne	s4,a3,80001950 <evict_page_lru+0x202>
      printf("[pid %d] SWAPFULL\n", p->pid);
    8000195e:	588c                	lw	a1,48(s1)
    80001960:	00007517          	auipc	a0,0x7
    80001964:	84050513          	addi	a0,a0,-1984 # 800081a0 <digits+0x168>
    80001968:	b5dfe0ef          	jal	ra,800004c4 <printf>
      printf("[pid %d] KILL swap-exhausted\n", p->pid);
    8000196c:	588c                	lw	a1,48(s1)
    8000196e:	00007517          	auipc	a0,0x7
    80001972:	84a50513          	addi	a0,a0,-1974 # 800081b8 <digits+0x180>
    80001976:	b4ffe0ef          	jal	ra,800004c4 <printf>
      setkilled(p);
    8000197a:	8526                	mv	a0,s1
    8000197c:	356010ef          	jal	ra,80002cd2 <setkilled>
      return 0;
    80001980:	4b81                	li	s7,0
    80001982:	bf99                	j	800018d8 <evict_page_lru+0x18a>

0000000080001984 <find_swapped_page>:
// Check if a virtual address has been swapped out
// Returns swap slot number if found, -1 if not swapped
int find_swapped_page(struct proc *p, uint64 va) {
    80001984:	1141                	addi	sp,sp,-16
    80001986:	e422                	sd	s0,8(sp)
    80001988:	0800                	addi	s0,sp,16
  uint64 page_va = PGROUNDDOWN(va);
    8000198a:	77fd                	lui	a5,0xfffff
    8000198c:	8dfd                	and	a1,a1,a5
  for(int i = 0; i < p->num_swapped; i++) {
    8000198e:	6785                	lui	a5,0x1
    80001990:	97aa                	add	a5,a5,a0
    80001992:	bc87a603          	lw	a2,-1080(a5) # bc8 <_entry-0x7ffff438>
    80001996:	02c05663          	blez	a2,800019c2 <find_swapped_page+0x3e>
    8000199a:	7c850713          	addi	a4,a0,1992
    8000199e:	4781                	li	a5,0
    if(p->swapped_pages[i].va == page_va) {
    800019a0:	6314                	ld	a3,0(a4)
    800019a2:	00b68863          	beq	a3,a1,800019b2 <find_swapped_page+0x2e>
  for(int i = 0; i < p->num_swapped; i++) {
    800019a6:	2785                	addiw	a5,a5,1
    800019a8:	0741                	addi	a4,a4,16
    800019aa:	fec79be3          	bne	a5,a2,800019a0 <find_swapped_page+0x1c>
      return p->swapped_pages[i].swap_slot;
    }
  }
  return -1;
    800019ae:	557d                	li	a0,-1
    800019b0:	a031                	j	800019bc <find_swapped_page+0x38>
      return p->swapped_pages[i].swap_slot;
    800019b2:	07c78793          	addi	a5,a5,124
    800019b6:	0792                	slli	a5,a5,0x4
    800019b8:	97aa                	add	a5,a5,a0
    800019ba:	4b88                	lw	a0,16(a5)
}
    800019bc:	6422                	ld	s0,8(sp)
    800019be:	0141                	addi	sp,sp,16
    800019c0:	8082                	ret
  return -1;
    800019c2:	557d                	li	a0,-1
    800019c4:	bfe5                	j	800019bc <find_swapped_page+0x38>

00000000800019c6 <remove_swapped_page>:

// Remove a page from the swapped list
void remove_swapped_page(struct proc *p, uint64 va) {
    800019c6:	1141                	addi	sp,sp,-16
    800019c8:	e422                	sd	s0,8(sp)
    800019ca:	0800                	addi	s0,sp,16
  uint64 page_va = PGROUNDDOWN(va);
    800019cc:	77fd                	lui	a5,0xfffff
    800019ce:	8dfd                	and	a1,a1,a5
  for(int i = 0; i < p->num_swapped; i++) {
    800019d0:	6785                	lui	a5,0x1
    800019d2:	97aa                	add	a5,a5,a0
    800019d4:	bc87a683          	lw	a3,-1080(a5) # bc8 <_entry-0x7ffff438>
    800019d8:	04d05e63          	blez	a3,80001a34 <remove_swapped_page+0x6e>
    800019dc:	7c850793          	addi	a5,a0,1992
    800019e0:	4701                	li	a4,0
    if(p->swapped_pages[i].va == page_va) {
    800019e2:	6390                	ld	a2,0(a5)
    800019e4:	00b60763          	beq	a2,a1,800019f2 <remove_swapped_page+0x2c>
  for(int i = 0; i < p->num_swapped; i++) {
    800019e8:	2705                	addiw	a4,a4,1
    800019ea:	07c1                	addi	a5,a5,16
    800019ec:	fed71be3          	bne	a4,a3,800019e2 <remove_swapped_page+0x1c>
    800019f0:	a091                	j	80001a34 <remove_swapped_page+0x6e>
      // Shift remaining entries
      for(int j = i; j < p->num_swapped - 1; j++) {
    800019f2:	fff6861b          	addiw	a2,a3,-1
    800019f6:	0006079b          	sext.w	a5,a2
    800019fa:	02f75963          	bge	a4,a5,80001a2c <remove_swapped_page+0x66>
    800019fe:	00471793          	slli	a5,a4,0x4
    80001a02:	97aa                	add	a5,a5,a0
    80001a04:	36f9                	addiw	a3,a3,-2
    80001a06:	9e99                	subw	a3,a3,a4
    80001a08:	1682                	slli	a3,a3,0x20
    80001a0a:	9281                	srli	a3,a3,0x20
    80001a0c:	9736                	add	a4,a4,a3
    80001a0e:	0712                	slli	a4,a4,0x4
    80001a10:	01050693          	addi	a3,a0,16
    80001a14:	9736                	add	a4,a4,a3
        p->swapped_pages[j] = p->swapped_pages[j + 1];
    80001a16:	7d87b683          	ld	a3,2008(a5)
    80001a1a:	7cd7b423          	sd	a3,1992(a5)
    80001a1e:	7e07b683          	ld	a3,2016(a5)
    80001a22:	7cd7b823          	sd	a3,2000(a5)
      for(int j = i; j < p->num_swapped - 1; j++) {
    80001a26:	07c1                	addi	a5,a5,16
    80001a28:	fee797e3          	bne	a5,a4,80001a16 <remove_swapped_page+0x50>
      }
      p->num_swapped--;
    80001a2c:	6785                	lui	a5,0x1
    80001a2e:	953e                	add	a0,a0,a5
    80001a30:	bcc52423          	sw	a2,-1080(a0)
      return;
    }
  }
}
    80001a34:	6422                	ld	s0,8(sp)
    80001a36:	0141                	addi	sp,sp,16
    80001a38:	8082                	ret

0000000080001a3a <handle_write_fault>:
// Handle write to read-only page (mark dirty and upgrade permissions)
int handle_write_fault(pagetable_t pagetable, uint64 va) {
    80001a3a:	7179                	addi	sp,sp,-48
    80001a3c:	f406                	sd	ra,40(sp)
    80001a3e:	f022                	sd	s0,32(sp)
    80001a40:	ec26                	sd	s1,24(sp)
    80001a42:	e84a                	sd	s2,16(sp)
    80001a44:	e44e                	sd	s3,8(sp)
    80001a46:	1800                	addi	s0,sp,48
    80001a48:	89aa                	mv	s3,a0
    80001a4a:	84ae                	mv	s1,a1
  struct proc *p = myproc();
    80001a4c:	17d000ef          	jal	ra,800023c8 <myproc>
    80001a50:	892a                	mv	s2,a0
  uint64 page_va = PGROUNDDOWN(va);
    80001a52:	75fd                	lui	a1,0xfffff
    80001a54:	8ced                	and	s1,s1,a1
  
  pte_t *pte = walk(pagetable, page_va, 0);
    80001a56:	4601                	li	a2,0
    80001a58:	85a6                	mv	a1,s1
    80001a5a:	854e                	mv	a0,s3
    80001a5c:	c60ff0ef          	jal	ra,80000ebc <walk>
  if(pte == 0 || (*pte & PTE_V) == 0) {
    80001a60:	c53d                	beqz	a0,80001ace <handle_write_fault+0x94>
    80001a62:	611c                	ld	a5,0(a0)
    80001a64:	0017f713          	andi	a4,a5,1
    80001a68:	c72d                	beqz	a4,80001ad2 <handle_write_fault+0x98>
    return -1;
  }
  
  if((*pte & PTE_W) == 0 && (*pte & PTE_U) != 0) {
    80001a6a:	8bd1                	andi	a5,a5,20
    80001a6c:	4741                	li	a4,16
    80001a6e:	06e79463          	bne	a5,a4,80001ad6 <handle_write_fault+0x9c>
    // Mark it dirty in our resident set
    for(int i = 0; i < p->num_resident; i++) {
    80001a72:	7c092603          	lw	a2,1984(s2) # 17c0 <_entry-0x7fffe840>
    80001a76:	04c05063          	blez	a2,80001ab6 <handle_write_fault+0x7c>
    80001a7a:	1c090713          	addi	a4,s2,448
    80001a7e:	4781                	li	a5,0
      if(p->resident_pages[i].va == page_va) {
    80001a80:	6314                	ld	a3,0(a4)
    80001a82:	00968763          	beq	a3,s1,80001a90 <handle_write_fault+0x56>
    for(int i = 0; i < p->num_resident; i++) {
    80001a86:	2785                	addiw	a5,a5,1
    80001a88:	0761                	addi	a4,a4,24
    80001a8a:	fec79be3          	bne	a5,a2,80001a80 <handle_write_fault+0x46>
    80001a8e:	a025                	j	80001ab6 <handle_write_fault+0x7c>
        p->resident_pages[i].is_dirty = 1;
    80001a90:	00179713          	slli	a4,a5,0x1
    80001a94:	00f706b3          	add	a3,a4,a5
    80001a98:	068e                	slli	a3,a3,0x3
    80001a9a:	96ca                	add	a3,a3,s2
    80001a9c:	4605                	li	a2,1
    80001a9e:	1cc6a623          	sw	a2,460(a3)
        p->resident_pages[i].last_used_seq = p->next_fifo_seq;  // ADD THIS LINE
    80001aa2:	19092683          	lw	a3,400(s2)
    80001aa6:	97ba                	add	a5,a5,a4
    80001aa8:	078e                	slli	a5,a5,0x3
    80001aaa:	97ca                	add	a5,a5,s2
    80001aac:	1cd7aa23          	sw	a3,468(a5) # 11d4 <_entry-0x7fffee2c>
        p->next_fifo_seq++;  // ADD THIS LINE
    80001ab0:	2685                	addiw	a3,a3,1
    80001ab2:	18d92823          	sw	a3,400(s2)
        break;
      }
    }
    
    *pte |= PTE_W;
    80001ab6:	611c                	ld	a5,0(a0)
    80001ab8:	0047e793          	ori	a5,a5,4
    80001abc:	e11c                	sd	a5,0(a0)
    return 0;
    80001abe:	4501                	li	a0,0
  }
  
  return -1;
}
    80001ac0:	70a2                	ld	ra,40(sp)
    80001ac2:	7402                	ld	s0,32(sp)
    80001ac4:	64e2                	ld	s1,24(sp)
    80001ac6:	6942                	ld	s2,16(sp)
    80001ac8:	69a2                	ld	s3,8(sp)
    80001aca:	6145                	addi	sp,sp,48
    80001acc:	8082                	ret
    return -1;
    80001ace:	557d                	li	a0,-1
    80001ad0:	bfc5                	j	80001ac0 <handle_write_fault+0x86>
    80001ad2:	557d                	li	a0,-1
    80001ad4:	b7f5                	j	80001ac0 <handle_write_fault+0x86>
  return -1;
    80001ad6:	557d                	li	a0,-1
    80001ad8:	b7e5                	j	80001ac0 <handle_write_fault+0x86>

0000000080001ada <vmfault>:


uint64
vmfault(pagetable_t pagetable, uint64 va, int is_write)
{
    80001ada:	715d                	addi	sp,sp,-80
    80001adc:	e486                	sd	ra,72(sp)
    80001ade:	e0a2                	sd	s0,64(sp)
    80001ae0:	fc26                	sd	s1,56(sp)
    80001ae2:	f84a                	sd	s2,48(sp)
    80001ae4:	f44e                	sd	s3,40(sp)
    80001ae6:	f052                	sd	s4,32(sp)
    80001ae8:	ec56                	sd	s5,24(sp)
    80001aea:	e85a                	sd	s6,16(sp)
    80001aec:	e45e                	sd	s7,8(sp)
    80001aee:	0880                	addi	s0,sp,80
    80001af0:	8aaa                	mv	s5,a0
    80001af2:	892e                	mv	s2,a1
    80001af4:	8b32                	mv	s6,a2
  struct proc *p = myproc();
    80001af6:	0d3000ef          	jal	ra,800023c8 <myproc>
    80001afa:	84aa                	mv	s1,a0
  char *mem;
  uint64 page_va = PGROUNDDOWN(va);
    80001afc:	79fd                	lui	s3,0xfffff
    80001afe:	013979b3          	and	s3,s2,s3
  
  // printf("[DEBUG] vmfault: va=0x%lx, p->sz=0x%lx, stack_range=[0x%lx,0x%lx)\n", 
  //        va, p->sz, p->sz - USERSTACK*PGSIZE, p->sz);
  
  // NEW - CHECK IF PAGE WAS SWAPPED OUT (ADD THIS FIRST)
  int swap_slot = find_swapped_page(p, va);
    80001b02:	85ca                	mv	a1,s2
    80001b04:	e81ff0ef          	jal	ra,80001984 <find_swapped_page>
  if(swap_slot >= 0) {
    80001b08:	16054463          	bltz	a0,80001c70 <vmfault+0x196>
    80001b0c:	8a2a                	mv	s4,a0
    // Page is in swap - reload it
    printf("[pid %d] PAGEFAULT va=0x%lx access=%s cause=swap\n", 
    80001b0e:	588c                	lw	a1,48(s1)
    80001b10:	00006697          	auipc	a3,0x6
    80001b14:	7c068693          	addi	a3,a3,1984 # 800082d0 <digits+0x298>
    80001b18:	000b1663          	bnez	s6,80001b24 <vmfault+0x4a>
    80001b1c:	00007697          	auipc	a3,0x7
    80001b20:	edc68693          	addi	a3,a3,-292 # 800089f8 <syscalls+0x1f8>
    80001b24:	864e                	mv	a2,s3
    80001b26:	00006517          	auipc	a0,0x6
    80001b2a:	7b250513          	addi	a0,a0,1970 # 800082d8 <digits+0x2a0>
    80001b2e:	997fe0ef          	jal	ra,800004c4 <printf>
            p->pid, page_va, is_write ? "write" : "read");
    
    // Allocate memory for the page
    if((mem = kalloc()) == 0) {
    80001b32:	f6bfe0ef          	jal	ra,80000a9c <kalloc>
    80001b36:	892a                	mv	s2,a0
    80001b38:	c569                	beqz	a0,80001c02 <vmfault+0x128>
    return -1;
  }
}
    
    // Read page from swap file
    if(p->swapfile) {
    80001b3a:	6785                	lui	a5,0x1
    80001b3c:	97a6                	add	a5,a5,s1
    80001b3e:	bd07b783          	ld	a5,-1072(a5) # bd0 <_entry-0x7ffff430>
    80001b42:	10078663          	beqz	a5,80001c4e <vmfault+0x174>
      p->swapfile->off = swap_slot * PGSIZE;
    80001b46:	00ca171b          	slliw	a4,s4,0xc
    80001b4a:	d398                	sw	a4,32(a5)
      int bytes_read = fileread(p->swapfile, (uint64)mem, PGSIZE);
    80001b4c:	8b4a                	mv	s6,s2
    80001b4e:	6b85                	lui	s7,0x1
    80001b50:	017487b3          	add	a5,s1,s7
    80001b54:	6605                	lui	a2,0x1
    80001b56:	85ca                	mv	a1,s2
    80001b58:	bd07b503          	ld	a0,-1072(a5)
    80001b5c:	2ec030ef          	jal	ra,80004e48 <fileread>
      if(bytes_read != PGSIZE) {
    80001b60:	0d751063          	bne	a0,s7,80001c20 <vmfault+0x146>
      kfree(mem);
      return -1;
    }
    
    // Free the swap slot
    p->swap_slots[swap_slot] = 0;
    80001b64:	2f8a0793          	addi	a5,s4,760
    80001b68:	078a                	slli	a5,a5,0x2
    80001b6a:	97a6                	add	a5,a5,s1
    80001b6c:	0007a623          	sw	zero,12(a5)
    p->num_swap_slots_used--;
    80001b70:	6789                	lui	a5,0x2
    80001b72:	97a6                	add	a5,a5,s1
    80001b74:	bec7a703          	lw	a4,-1044(a5) # 1bec <_entry-0x7fffe414>
    80001b78:	377d                	addiw	a4,a4,-1
    80001b7a:	bee7a623          	sw	a4,-1044(a5)
    
    // Remove from swapped list
    remove_swapped_page(p, page_va);
    80001b7e:	85ce                	mv	a1,s3
    80001b80:	8526                	mv	a0,s1
    80001b82:	e45ff0ef          	jal	ra,800019c6 <remove_swapped_page>
    
    printf("[pid %d] SWAPIN va=0x%lx slot=%d\n", p->pid, page_va, swap_slot);
    80001b86:	86d2                	mv	a3,s4
    80001b88:	864e                	mv	a2,s3
    80001b8a:	588c                	lw	a1,48(s1)
    80001b8c:	00006517          	auipc	a0,0x6
    80001b90:	7c450513          	addi	a0,a0,1988 # 80008350 <digits+0x318>
    80001b94:	931fe0ef          	jal	ra,800004c4 <printf>
    
    // Map the page
    // Map the page as READ-ONLY initially (will upgrade on first write)
if(mappages(pagetable, page_va, PGSIZE, (uint64)mem, PTE_R | PTE_U) < 0) {
    80001b98:	4749                	li	a4,18
    80001b9a:	86ca                	mv	a3,s2
    80001b9c:	6605                	lui	a2,0x1
    80001b9e:	85ce                	mv	a1,s3
    80001ba0:	8556                	mv	a0,s5
    80001ba2:	bf2ff0ef          	jal	ra,80000f94 <mappages>
    80001ba6:	0c054063          	bltz	a0,80001c66 <vmfault+0x18c>
      kfree(mem);
      return -1;
    }
    
    printf("[pid %d] RESIDENT va=0x%lx seq=%d\n", p->pid, page_va, p->next_fifo_seq);
    80001baa:	1904a683          	lw	a3,400(s1)
    80001bae:	864e                	mv	a2,s3
    80001bb0:	588c                	lw	a1,48(s1)
    80001bb2:	00006517          	auipc	a0,0x6
    80001bb6:	7c650513          	addi	a0,a0,1990 # 80008378 <digits+0x340>
    80001bba:	90bfe0ef          	jal	ra,800004c4 <printf>
    add_resident_page(p, page_va, p->next_fifo_seq);
    80001bbe:	1904a603          	lw	a2,400(s1)
    80001bc2:	85ce                	mv	a1,s3
    80001bc4:	8526                	mv	a0,s1
    80001bc6:	91bff0ef          	jal	ra,800014e0 <add_resident_page>
    p->next_fifo_seq++;
    80001bca:	1904a783          	lw	a5,400(s1)
    80001bce:	2785                	addiw	a5,a5,1
    80001bd0:	0007871b          	sext.w	a4,a5
    80001bd4:	18f4a823          	sw	a5,400(s1)
    
    if(p->next_fifo_seq >= 1000000) {
    80001bd8:	000f47b7          	lui	a5,0xf4
    80001bdc:	23f78793          	addi	a5,a5,575 # f423f <_entry-0x7ff0bdc1>
    80001be0:	04e7db63          	bge	a5,a4,80001c36 <vmfault+0x15c>
      for(int i = 0; i < p->num_resident; i++) {
    80001be4:	7c04a683          	lw	a3,1984(s1)
    80001be8:	00d05a63          	blez	a3,80001bfc <vmfault+0x122>
    80001bec:	1c848713          	addi	a4,s1,456
    80001bf0:	4781                	li	a5,0
        p->resident_pages[i].seq = i;
    80001bf2:	c31c                	sw	a5,0(a4)
      for(int i = 0; i < p->num_resident; i++) {
    80001bf4:	2785                	addiw	a5,a5,1
    80001bf6:	0761                	addi	a4,a4,24
    80001bf8:	fef69de3          	bne	a3,a5,80001bf2 <vmfault+0x118>
      }
      p->next_fifo_seq = p->num_resident;
    80001bfc:	18d4a823          	sw	a3,400(s1)
    80001c00:	a81d                	j	80001c36 <vmfault+0x15c>
  printf("[pid %d] MEMFULL\n", p->pid);
    80001c02:	588c                	lw	a1,48(s1)
    80001c04:	00006517          	auipc	a0,0x6
    80001c08:	70c50513          	addi	a0,a0,1804 # 80008310 <digits+0x2d8>
    80001c0c:	8b9fe0ef          	jal	ra,800004c4 <printf>
  mem = evict_page_fifo(p, pagetable);
    80001c10:	85d6                	mv	a1,s5
    80001c12:	8526                	mv	a0,s1
    80001c14:	905ff0ef          	jal	ra,80001518 <evict_page_fifo>
    80001c18:	892a                	mv	s2,a0
  if(mem == 0) {
    80001c1a:	f105                	bnez	a0,80001b3a <vmfault+0x60>
    return -1;
    80001c1c:	5b7d                	li	s6,-1
    80001c1e:	a821                	j	80001c36 <vmfault+0x15c>
        printf("[pid %d] ERROR: swap read failed\n", p->pid);
    80001c20:	588c                	lw	a1,48(s1)
    80001c22:	00006517          	auipc	a0,0x6
    80001c26:	70650513          	addi	a0,a0,1798 # 80008328 <digits+0x2f0>
    80001c2a:	89bfe0ef          	jal	ra,800004c4 <printf>
        kfree(mem);
    80001c2e:	854a                	mv	a0,s2
    80001c30:	d8dfe0ef          	jal	ra,800009bc <kfree>
        return -1;
    80001c34:	5b7d                	li	s6,-1
            p->pid, page_va, is_write ? "write" : "read");
    printf("[pid %d] KILL invalid-access va=0x%lx access=%s\n", 
            p->pid, page_va, is_write ? "write" : "read");
    return -1;
  }
    80001c36:	855a                	mv	a0,s6
    80001c38:	60a6                	ld	ra,72(sp)
    80001c3a:	6406                	ld	s0,64(sp)
    80001c3c:	74e2                	ld	s1,56(sp)
    80001c3e:	7942                	ld	s2,48(sp)
    80001c40:	79a2                	ld	s3,40(sp)
    80001c42:	7a02                	ld	s4,32(sp)
    80001c44:	6ae2                	ld	s5,24(sp)
    80001c46:	6b42                	ld	s6,16(sp)
    80001c48:	6ba2                	ld	s7,8(sp)
    80001c4a:	6161                	addi	sp,sp,80
    80001c4c:	8082                	ret
      printf("[pid %d] ERROR: no swap file\n", p->pid);
    80001c4e:	588c                	lw	a1,48(s1)
    80001c50:	00006517          	auipc	a0,0x6
    80001c54:	5d850513          	addi	a0,a0,1496 # 80008228 <digits+0x1f0>
    80001c58:	86dfe0ef          	jal	ra,800004c4 <printf>
      kfree(mem);
    80001c5c:	854a                	mv	a0,s2
    80001c5e:	d5ffe0ef          	jal	ra,800009bc <kfree>
      return -1;
    80001c62:	5b7d                	li	s6,-1
    80001c64:	bfc9                	j	80001c36 <vmfault+0x15c>
      kfree(mem);
    80001c66:	854a                	mv	a0,s2
    80001c68:	d55fe0ef          	jal	ra,800009bc <kfree>
      return -1;
    80001c6c:	5b7d                	li	s6,-1
    80001c6e:	b7e1                	j	80001c36 <vmfault+0x15c>
  if(va >= p->sz - USERSTACK*PGSIZE && va < p->sz) {
    80001c70:	64b8                	ld	a4,72(s1)
    80001c72:	77fd                	lui	a5,0xfffff
    80001c74:	97ba                	add	a5,a5,a4
    80001c76:	0ef96163          	bltu	s2,a5,80001d58 <vmfault+0x27e>
    80001c7a:	0ce97f63          	bgeu	s2,a4,80001d58 <vmfault+0x27e>
    printf("[pid %d] PAGEFAULT va=0x%lx access=%s cause=stack\n", 
    80001c7e:	588c                	lw	a1,48(s1)
    80001c80:	00006697          	auipc	a3,0x6
    80001c84:	65068693          	addi	a3,a3,1616 # 800082d0 <digits+0x298>
    80001c88:	000b1663          	bnez	s6,80001c94 <vmfault+0x1ba>
    80001c8c:	00007697          	auipc	a3,0x7
    80001c90:	d6c68693          	addi	a3,a3,-660 # 800089f8 <syscalls+0x1f8>
    80001c94:	864e                	mv	a2,s3
    80001c96:	00006517          	auipc	a0,0x6
    80001c9a:	70a50513          	addi	a0,a0,1802 # 800083a0 <digits+0x368>
    80001c9e:	827fe0ef          	jal	ra,800004c4 <printf>
   if((mem = kalloc()) == 0) {
    80001ca2:	dfbfe0ef          	jal	ra,80000a9c <kalloc>
    80001ca6:	892a                	mv	s2,a0
    80001ca8:	c541                	beqz	a0,80001d30 <vmfault+0x256>
    memset(mem, 0, PGSIZE);
    80001caa:	6605                	lui	a2,0x1
    80001cac:	4581                	li	a1,0
    80001cae:	854a                	mv	a0,s2
    80001cb0:	f91fe0ef          	jal	ra,80000c40 <memset>
if(mappages(pagetable, page_va, PGSIZE, (uint64)mem, PTE_R | PTE_U) < 0) {
    80001cb4:	8b4a                	mv	s6,s2
    80001cb6:	4749                	li	a4,18
    80001cb8:	86ca                	mv	a3,s2
    80001cba:	6605                	lui	a2,0x1
    80001cbc:	85ce                	mv	a1,s3
    80001cbe:	8556                	mv	a0,s5
    80001cc0:	ad4ff0ef          	jal	ra,80000f94 <mappages>
    80001cc4:	08054563          	bltz	a0,80001d4e <vmfault+0x274>
    printf("[pid %d] ALLOC va=0x%lx\n", p->pid, page_va);
    80001cc8:	864e                	mv	a2,s3
    80001cca:	588c                	lw	a1,48(s1)
    80001ccc:	00006517          	auipc	a0,0x6
    80001cd0:	70c50513          	addi	a0,a0,1804 # 800083d8 <digits+0x3a0>
    80001cd4:	ff0fe0ef          	jal	ra,800004c4 <printf>
    printf("[pid %d] RESIDENT va=0x%lx seq=%d\n", p->pid, page_va, p->next_fifo_seq);
    80001cd8:	1904a683          	lw	a3,400(s1)
    80001cdc:	864e                	mv	a2,s3
    80001cde:	588c                	lw	a1,48(s1)
    80001ce0:	00006517          	auipc	a0,0x6
    80001ce4:	69850513          	addi	a0,a0,1688 # 80008378 <digits+0x340>
    80001ce8:	fdcfe0ef          	jal	ra,800004c4 <printf>
    add_resident_page(p, page_va, p->next_fifo_seq);
    80001cec:	1904a603          	lw	a2,400(s1)
    80001cf0:	85ce                	mv	a1,s3
    80001cf2:	8526                	mv	a0,s1
    80001cf4:	fecff0ef          	jal	ra,800014e0 <add_resident_page>
    p->next_fifo_seq++;
    80001cf8:	1904a783          	lw	a5,400(s1)
    80001cfc:	2785                	addiw	a5,a5,1
    80001cfe:	0007871b          	sext.w	a4,a5
    80001d02:	18f4a823          	sw	a5,400(s1)
if(p->next_fifo_seq >= 1000000) {
    80001d06:	000f47b7          	lui	a5,0xf4
    80001d0a:	23f78793          	addi	a5,a5,575 # f423f <_entry-0x7ff0bdc1>
    80001d0e:	f2e7d4e3          	bge	a5,a4,80001c36 <vmfault+0x15c>
  for(int i = 0; i < p->num_resident; i++) {
    80001d12:	7c04a683          	lw	a3,1984(s1)
    80001d16:	00d05a63          	blez	a3,80001d2a <vmfault+0x250>
    80001d1a:	1c848713          	addi	a4,s1,456
    80001d1e:	4781                	li	a5,0
    p->resident_pages[i].seq = i;
    80001d20:	c31c                	sw	a5,0(a4)
  for(int i = 0; i < p->num_resident; i++) {
    80001d22:	2785                	addiw	a5,a5,1
    80001d24:	0761                	addi	a4,a4,24
    80001d26:	fed79de3          	bne	a5,a3,80001d20 <vmfault+0x246>
  p->next_fifo_seq = p->num_resident;
    80001d2a:	18d4a823          	sw	a3,400(s1)
    80001d2e:	b721                	j	80001c36 <vmfault+0x15c>
  printf("[pid %d] MEMFULL\n", p->pid);
    80001d30:	588c                	lw	a1,48(s1)
    80001d32:	00006517          	auipc	a0,0x6
    80001d36:	5de50513          	addi	a0,a0,1502 # 80008310 <digits+0x2d8>
    80001d3a:	f8afe0ef          	jal	ra,800004c4 <printf>
  mem = evict_page_fifo(p, pagetable);
    80001d3e:	85d6                	mv	a1,s5
    80001d40:	8526                	mv	a0,s1
    80001d42:	fd6ff0ef          	jal	ra,80001518 <evict_page_fifo>
    80001d46:	892a                	mv	s2,a0
  if(mem == 0) {
    80001d48:	f12d                	bnez	a0,80001caa <vmfault+0x1d0>
    return -1;
    80001d4a:	5b7d                	li	s6,-1
    80001d4c:	b5ed                	j	80001c36 <vmfault+0x15c>
      kfree(mem);
    80001d4e:	854a                	mv	a0,s2
    80001d50:	c6dfe0ef          	jal	ra,800009bc <kfree>
      return -1;
    80001d54:	5b7d                	li	s6,-1
    80001d56:	b5c5                	j	80001c36 <vmfault+0x15c>
  else if(va >= p->text_start && va < p->text_end) {
    80001d58:	1684b703          	ld	a4,360(s1)
    80001d5c:	12e96963          	bltu	s2,a4,80001e8e <vmfault+0x3b4>
    80001d60:	1704b703          	ld	a4,368(s1)
    80001d64:	12e97563          	bgeu	s2,a4,80001e8e <vmfault+0x3b4>
    printf("[pid %d] PAGEFAULT va=0x%lx access=%s cause=exec\n", 
    80001d68:	588c                	lw	a1,48(s1)
    80001d6a:	00006697          	auipc	a3,0x6
    80001d6e:	56668693          	addi	a3,a3,1382 # 800082d0 <digits+0x298>
    80001d72:	000b1663          	bnez	s6,80001d7e <vmfault+0x2a4>
    80001d76:	00007697          	auipc	a3,0x7
    80001d7a:	c8268693          	addi	a3,a3,-894 # 800089f8 <syscalls+0x1f8>
    80001d7e:	864e                	mv	a2,s3
    80001d80:	00006517          	auipc	a0,0x6
    80001d84:	67850513          	addi	a0,a0,1656 # 800083f8 <digits+0x3c0>
    80001d88:	f3cfe0ef          	jal	ra,800004c4 <printf>
  if((mem = kalloc()) == 0) {
    80001d8c:	d11fe0ef          	jal	ra,80000a9c <kalloc>
    80001d90:	892a                	mv	s2,a0
    80001d92:	c969                	beqz	a0,80001e64 <vmfault+0x38a>
    memset(mem, 0, PGSIZE);  // Zero-fill first
    80001d94:	6605                	lui	a2,0x1
    80001d96:	4581                	li	a1,0
    80001d98:	854a                	mv	a0,s2
    80001d9a:	ea7fe0ef          	jal	ra,80000c40 <memset>
    if(p->exec_inode && p->text_file_size > 0) {
    80001d9e:	1984b503          	ld	a0,408(s1)
    80001da2:	c139                	beqz	a0,80001de8 <vmfault+0x30e>
    80001da4:	1a84b783          	ld	a5,424(s1)
    80001da8:	c3a1                	beqz	a5,80001de8 <vmfault+0x30e>
      uint64 page_offset_in_segment = page_va - p->text_start;
    80001daa:	1684b683          	ld	a3,360(s1)
    80001dae:	40d98733          	sub	a4,s3,a3
      uint64 file_offset = p->text_file_offset + page_offset_in_segment;
    80001db2:	1a04ba03          	ld	s4,416(s1)
    80001db6:	9a3a                	add	s4,s4,a4
      if(page_offset_in_segment + PGSIZE > p->text_file_size) {
    80001db8:	6605                	lui	a2,0x1
    80001dba:	9732                	add	a4,a4,a2
      uint64 bytes_to_read = PGSIZE;
    80001dbc:	6b05                	lui	s6,0x1
      if(page_offset_in_segment + PGSIZE > p->text_file_size) {
    80001dbe:	00e7f563          	bgeu	a5,a4,80001dc8 <vmfault+0x2ee>
        bytes_to_read = p->text_file_size - page_offset_in_segment;
    80001dc2:	97b6                	add	a5,a5,a3
    80001dc4:	41378b33          	sub	s6,a5,s3
      ilock(p->exec_inode);
    80001dc8:	18e020ef          	jal	ra,80003f56 <ilock>
      readi(p->exec_inode, 0, (uint64)mem, file_offset, bytes_to_read);
    80001dcc:	000b071b          	sext.w	a4,s6
    80001dd0:	000a069b          	sext.w	a3,s4
    80001dd4:	864a                	mv	a2,s2
    80001dd6:	4581                	li	a1,0
    80001dd8:	1984b503          	ld	a0,408(s1)
    80001ddc:	506020ef          	jal	ra,800042e2 <readi>
      iunlock(p->exec_inode);
    80001de0:	1984b503          	ld	a0,408(s1)
    80001de4:	21c020ef          	jal	ra,80004000 <iunlock>
    if(mappages(pagetable, page_va, PGSIZE, (uint64)mem, PTE_R | PTE_X | PTE_U) < 0) {
    80001de8:	8b4a                	mv	s6,s2
    80001dea:	4769                	li	a4,26
    80001dec:	86ca                	mv	a3,s2
    80001dee:	6605                	lui	a2,0x1
    80001df0:	85ce                	mv	a1,s3
    80001df2:	8556                	mv	a0,s5
    80001df4:	9a0ff0ef          	jal	ra,80000f94 <mappages>
    80001df8:	08054663          	bltz	a0,80001e84 <vmfault+0x3aa>
    printf("[pid %d] LOADEXEC va=0x%lx\n", p->pid, page_va);
    80001dfc:	864e                	mv	a2,s3
    80001dfe:	588c                	lw	a1,48(s1)
    80001e00:	00006517          	auipc	a0,0x6
    80001e04:	63050513          	addi	a0,a0,1584 # 80008430 <digits+0x3f8>
    80001e08:	ebcfe0ef          	jal	ra,800004c4 <printf>
    printf("[pid %d] RESIDENT va=0x%lx seq=%d\n", p->pid, page_va, p->next_fifo_seq);
    80001e0c:	1904a683          	lw	a3,400(s1)
    80001e10:	864e                	mv	a2,s3
    80001e12:	588c                	lw	a1,48(s1)
    80001e14:	00006517          	auipc	a0,0x6
    80001e18:	56450513          	addi	a0,a0,1380 # 80008378 <digits+0x340>
    80001e1c:	ea8fe0ef          	jal	ra,800004c4 <printf>
    add_resident_page(p, page_va, p->next_fifo_seq);
    80001e20:	1904a603          	lw	a2,400(s1)
    80001e24:	85ce                	mv	a1,s3
    80001e26:	8526                	mv	a0,s1
    80001e28:	eb8ff0ef          	jal	ra,800014e0 <add_resident_page>
    p->next_fifo_seq++;
    80001e2c:	1904a783          	lw	a5,400(s1)
    80001e30:	2785                	addiw	a5,a5,1
    80001e32:	0007871b          	sext.w	a4,a5
    80001e36:	18f4a823          	sw	a5,400(s1)
if(p->next_fifo_seq >= 1000000) {
    80001e3a:	000f47b7          	lui	a5,0xf4
    80001e3e:	23f78793          	addi	a5,a5,575 # f423f <_entry-0x7ff0bdc1>
    80001e42:	dee7dae3          	bge	a5,a4,80001c36 <vmfault+0x15c>
  for(int i = 0; i < p->num_resident; i++) {
    80001e46:	7c04a683          	lw	a3,1984(s1)
    80001e4a:	00d05a63          	blez	a3,80001e5e <vmfault+0x384>
    80001e4e:	1c848713          	addi	a4,s1,456
    80001e52:	4781                	li	a5,0
    p->resident_pages[i].seq = i;
    80001e54:	c31c                	sw	a5,0(a4)
  for(int i = 0; i < p->num_resident; i++) {
    80001e56:	2785                	addiw	a5,a5,1
    80001e58:	0761                	addi	a4,a4,24
    80001e5a:	fed79de3          	bne	a5,a3,80001e54 <vmfault+0x37a>
  p->next_fifo_seq = p->num_resident;
    80001e5e:	18d4a823          	sw	a3,400(s1)
    80001e62:	bbd1                	j	80001c36 <vmfault+0x15c>
  printf("[pid %d] MEMFULL\n", p->pid);
    80001e64:	588c                	lw	a1,48(s1)
    80001e66:	00006517          	auipc	a0,0x6
    80001e6a:	4aa50513          	addi	a0,a0,1194 # 80008310 <digits+0x2d8>
    80001e6e:	e56fe0ef          	jal	ra,800004c4 <printf>
  mem = evict_page_fifo(p, pagetable);
    80001e72:	85d6                	mv	a1,s5
    80001e74:	8526                	mv	a0,s1
    80001e76:	ea2ff0ef          	jal	ra,80001518 <evict_page_fifo>
    80001e7a:	892a                	mv	s2,a0
  if(mem == 0) {
    80001e7c:	f0051ce3          	bnez	a0,80001d94 <vmfault+0x2ba>
    return -1;
    80001e80:	5b7d                	li	s6,-1
    80001e82:	bb55                	j	80001c36 <vmfault+0x15c>
      kfree(mem);
    80001e84:	854a                	mv	a0,s2
    80001e86:	b37fe0ef          	jal	ra,800009bc <kfree>
      return -1;
    80001e8a:	5b7d                	li	s6,-1
    80001e8c:	b36d                	j	80001c36 <vmfault+0x15c>
  else if(va >= p->data_start && va < p->data_end) {
    80001e8e:	1784b703          	ld	a4,376(s1)
    80001e92:	12e96963          	bltu	s2,a4,80001fc4 <vmfault+0x4ea>
    80001e96:	1804b703          	ld	a4,384(s1)
    80001e9a:	12e97563          	bgeu	s2,a4,80001fc4 <vmfault+0x4ea>
    printf("[pid %d] PAGEFAULT va=0x%lx access=%s cause=exec\n", 
    80001e9e:	588c                	lw	a1,48(s1)
    80001ea0:	00006697          	auipc	a3,0x6
    80001ea4:	43068693          	addi	a3,a3,1072 # 800082d0 <digits+0x298>
    80001ea8:	000b1663          	bnez	s6,80001eb4 <vmfault+0x3da>
    80001eac:	00007697          	auipc	a3,0x7
    80001eb0:	b4c68693          	addi	a3,a3,-1204 # 800089f8 <syscalls+0x1f8>
    80001eb4:	864e                	mv	a2,s3
    80001eb6:	00006517          	auipc	a0,0x6
    80001eba:	54250513          	addi	a0,a0,1346 # 800083f8 <digits+0x3c0>
    80001ebe:	e06fe0ef          	jal	ra,800004c4 <printf>
  if((mem = kalloc()) == 0) {
    80001ec2:	bdbfe0ef          	jal	ra,80000a9c <kalloc>
    80001ec6:	892a                	mv	s2,a0
    80001ec8:	c969                	beqz	a0,80001f9a <vmfault+0x4c0>
} memset(mem, 0, PGSIZE);  // Zero-fill first
    80001eca:	6605                	lui	a2,0x1
    80001ecc:	4581                	li	a1,0
    80001ece:	854a                	mv	a0,s2
    80001ed0:	d71fe0ef          	jal	ra,80000c40 <memset>
    if(p->exec_inode && p->data_file_size > 0) {
    80001ed4:	1984b503          	ld	a0,408(s1)
    80001ed8:	c139                	beqz	a0,80001f1e <vmfault+0x444>
    80001eda:	1b84b783          	ld	a5,440(s1)
    80001ede:	c3a1                	beqz	a5,80001f1e <vmfault+0x444>
      uint64 page_offset_in_segment = page_va - p->data_start;
    80001ee0:	1784b683          	ld	a3,376(s1)
    80001ee4:	40d98733          	sub	a4,s3,a3
      uint64 file_offset = p->data_file_offset + page_offset_in_segment;
    80001ee8:	1b04ba03          	ld	s4,432(s1)
    80001eec:	9a3a                	add	s4,s4,a4
      if(page_offset_in_segment + PGSIZE > p->data_file_size) {
    80001eee:	6605                	lui	a2,0x1
    80001ef0:	9732                	add	a4,a4,a2
      uint64 bytes_to_read = PGSIZE;
    80001ef2:	6b05                	lui	s6,0x1
      if(page_offset_in_segment + PGSIZE > p->data_file_size) {
    80001ef4:	00e7f563          	bgeu	a5,a4,80001efe <vmfault+0x424>
        bytes_to_read = p->data_file_size - page_offset_in_segment;
    80001ef8:	97b6                	add	a5,a5,a3
    80001efa:	41378b33          	sub	s6,a5,s3
      ilock(p->exec_inode);
    80001efe:	058020ef          	jal	ra,80003f56 <ilock>
      readi(p->exec_inode, 0, (uint64)mem, file_offset, bytes_to_read);
    80001f02:	000b071b          	sext.w	a4,s6
    80001f06:	000a069b          	sext.w	a3,s4
    80001f0a:	864a                	mv	a2,s2
    80001f0c:	4581                	li	a1,0
    80001f0e:	1984b503          	ld	a0,408(s1)
    80001f12:	3d0020ef          	jal	ra,800042e2 <readi>
      iunlock(p->exec_inode);
    80001f16:	1984b503          	ld	a0,408(s1)
    80001f1a:	0e6020ef          	jal	ra,80004000 <iunlock>
if(mappages(pagetable, page_va, PGSIZE, (uint64)mem, PTE_R | PTE_U) < 0) {
    80001f1e:	8b4a                	mv	s6,s2
    80001f20:	4749                	li	a4,18
    80001f22:	86ca                	mv	a3,s2
    80001f24:	6605                	lui	a2,0x1
    80001f26:	85ce                	mv	a1,s3
    80001f28:	8556                	mv	a0,s5
    80001f2a:	86aff0ef          	jal	ra,80000f94 <mappages>
    80001f2e:	08054663          	bltz	a0,80001fba <vmfault+0x4e0>
    printf("[pid %d] LOADEXEC va=0x%lx\n", p->pid, page_va);
    80001f32:	864e                	mv	a2,s3
    80001f34:	588c                	lw	a1,48(s1)
    80001f36:	00006517          	auipc	a0,0x6
    80001f3a:	4fa50513          	addi	a0,a0,1274 # 80008430 <digits+0x3f8>
    80001f3e:	d86fe0ef          	jal	ra,800004c4 <printf>
    printf("[pid %d] RESIDENT va=0x%lx seq=%d\n", p->pid, page_va, p->next_fifo_seq);
    80001f42:	1904a683          	lw	a3,400(s1)
    80001f46:	864e                	mv	a2,s3
    80001f48:	588c                	lw	a1,48(s1)
    80001f4a:	00006517          	auipc	a0,0x6
    80001f4e:	42e50513          	addi	a0,a0,1070 # 80008378 <digits+0x340>
    80001f52:	d72fe0ef          	jal	ra,800004c4 <printf>
    add_resident_page(p, page_va, p->next_fifo_seq);
    80001f56:	1904a603          	lw	a2,400(s1)
    80001f5a:	85ce                	mv	a1,s3
    80001f5c:	8526                	mv	a0,s1
    80001f5e:	d82ff0ef          	jal	ra,800014e0 <add_resident_page>
    p->next_fifo_seq++;
    80001f62:	1904a783          	lw	a5,400(s1)
    80001f66:	2785                	addiw	a5,a5,1
    80001f68:	0007871b          	sext.w	a4,a5
    80001f6c:	18f4a823          	sw	a5,400(s1)
if(p->next_fifo_seq >= 1000000) {
    80001f70:	000f47b7          	lui	a5,0xf4
    80001f74:	23f78793          	addi	a5,a5,575 # f423f <_entry-0x7ff0bdc1>
    80001f78:	cae7dfe3          	bge	a5,a4,80001c36 <vmfault+0x15c>
  for(int i = 0; i < p->num_resident; i++) {
    80001f7c:	7c04a683          	lw	a3,1984(s1)
    80001f80:	00d05a63          	blez	a3,80001f94 <vmfault+0x4ba>
    80001f84:	1c848713          	addi	a4,s1,456
    80001f88:	4781                	li	a5,0
    p->resident_pages[i].seq = i;
    80001f8a:	c31c                	sw	a5,0(a4)
  for(int i = 0; i < p->num_resident; i++) {
    80001f8c:	2785                	addiw	a5,a5,1
    80001f8e:	0761                	addi	a4,a4,24
    80001f90:	fed79de3          	bne	a5,a3,80001f8a <vmfault+0x4b0>
  p->next_fifo_seq = p->num_resident;
    80001f94:	18d4a823          	sw	a3,400(s1)
    80001f98:	b979                	j	80001c36 <vmfault+0x15c>
  printf("[pid %d] MEMFULL\n", p->pid);
    80001f9a:	588c                	lw	a1,48(s1)
    80001f9c:	00006517          	auipc	a0,0x6
    80001fa0:	37450513          	addi	a0,a0,884 # 80008310 <digits+0x2d8>
    80001fa4:	d20fe0ef          	jal	ra,800004c4 <printf>
  mem = evict_page_fifo(p, pagetable);
    80001fa8:	85d6                	mv	a1,s5
    80001faa:	8526                	mv	a0,s1
    80001fac:	d6cff0ef          	jal	ra,80001518 <evict_page_fifo>
    80001fb0:	892a                	mv	s2,a0
  if(mem == 0) {
    80001fb2:	f0051ce3          	bnez	a0,80001eca <vmfault+0x3f0>
    return -1;
    80001fb6:	5b7d                	li	s6,-1
    80001fb8:	b9bd                	j	80001c36 <vmfault+0x15c>
      kfree(mem);
    80001fba:	854a                	mv	a0,s2
    80001fbc:	a01fe0ef          	jal	ra,800009bc <kfree>
      return -1;
    80001fc0:	5b7d                	li	s6,-1
    80001fc2:	b995                	j	80001c36 <vmfault+0x15c>
  else if(va >= p->heap_start && va < p->sz - USERSTACK*PGSIZE) {
    80001fc4:	1884b703          	ld	a4,392(s1)
    80001fc8:	0ee96163          	bltu	s2,a4,800020aa <vmfault+0x5d0>
    80001fcc:	0cf97f63          	bgeu	s2,a5,800020aa <vmfault+0x5d0>
    printf("[pid %d] PAGEFAULT va=0x%lx access=%s cause=heap\n", 
    80001fd0:	588c                	lw	a1,48(s1)
    80001fd2:	00006697          	auipc	a3,0x6
    80001fd6:	2fe68693          	addi	a3,a3,766 # 800082d0 <digits+0x298>
    80001fda:	000b1663          	bnez	s6,80001fe6 <vmfault+0x50c>
    80001fde:	00007697          	auipc	a3,0x7
    80001fe2:	a1a68693          	addi	a3,a3,-1510 # 800089f8 <syscalls+0x1f8>
    80001fe6:	864e                	mv	a2,s3
    80001fe8:	00006517          	auipc	a0,0x6
    80001fec:	46850513          	addi	a0,a0,1128 # 80008450 <digits+0x418>
    80001ff0:	cd4fe0ef          	jal	ra,800004c4 <printf>
if((mem = kalloc()) == 0) {
    80001ff4:	aa9fe0ef          	jal	ra,80000a9c <kalloc>
    80001ff8:	892a                	mv	s2,a0
    80001ffa:	c541                	beqz	a0,80002082 <vmfault+0x5a8>
    memset(mem, 0, PGSIZE);
    80001ffc:	6605                	lui	a2,0x1
    80001ffe:	4581                	li	a1,0
    80002000:	854a                	mv	a0,s2
    80002002:	c3ffe0ef          	jal	ra,80000c40 <memset>
if(mappages(pagetable, page_va, PGSIZE, (uint64)mem, PTE_R | PTE_U) < 0) {
    80002006:	8b4a                	mv	s6,s2
    80002008:	4749                	li	a4,18
    8000200a:	86ca                	mv	a3,s2
    8000200c:	6605                	lui	a2,0x1
    8000200e:	85ce                	mv	a1,s3
    80002010:	8556                	mv	a0,s5
    80002012:	f83fe0ef          	jal	ra,80000f94 <mappages>
    80002016:	08054563          	bltz	a0,800020a0 <vmfault+0x5c6>
    printf("[pid %d] ALLOC va=0x%lx\n", p->pid, page_va);
    8000201a:	864e                	mv	a2,s3
    8000201c:	588c                	lw	a1,48(s1)
    8000201e:	00006517          	auipc	a0,0x6
    80002022:	3ba50513          	addi	a0,a0,954 # 800083d8 <digits+0x3a0>
    80002026:	c9efe0ef          	jal	ra,800004c4 <printf>
    printf("[pid %d] RESIDENT va=0x%lx seq=%d\n", p->pid, page_va, p->next_fifo_seq);
    8000202a:	1904a683          	lw	a3,400(s1)
    8000202e:	864e                	mv	a2,s3
    80002030:	588c                	lw	a1,48(s1)
    80002032:	00006517          	auipc	a0,0x6
    80002036:	34650513          	addi	a0,a0,838 # 80008378 <digits+0x340>
    8000203a:	c8afe0ef          	jal	ra,800004c4 <printf>
    add_resident_page(p, page_va, p->next_fifo_seq);
    8000203e:	1904a603          	lw	a2,400(s1)
    80002042:	85ce                	mv	a1,s3
    80002044:	8526                	mv	a0,s1
    80002046:	c9aff0ef          	jal	ra,800014e0 <add_resident_page>
    p->next_fifo_seq++;
    8000204a:	1904a783          	lw	a5,400(s1)
    8000204e:	2785                	addiw	a5,a5,1
    80002050:	0007871b          	sext.w	a4,a5
    80002054:	18f4a823          	sw	a5,400(s1)
if(p->next_fifo_seq >= 1000000) {
    80002058:	000f47b7          	lui	a5,0xf4
    8000205c:	23f78793          	addi	a5,a5,575 # f423f <_entry-0x7ff0bdc1>
    80002060:	bce7dbe3          	bge	a5,a4,80001c36 <vmfault+0x15c>
  for(int i = 0; i < p->num_resident; i++) {
    80002064:	7c04a683          	lw	a3,1984(s1)
    80002068:	00d05a63          	blez	a3,8000207c <vmfault+0x5a2>
    8000206c:	1c848713          	addi	a4,s1,456
    80002070:	4781                	li	a5,0
    p->resident_pages[i].seq = i;
    80002072:	c31c                	sw	a5,0(a4)
  for(int i = 0; i < p->num_resident; i++) {
    80002074:	2785                	addiw	a5,a5,1
    80002076:	0761                	addi	a4,a4,24
    80002078:	fed79de3          	bne	a5,a3,80002072 <vmfault+0x598>
  p->next_fifo_seq = p->num_resident;
    8000207c:	18d4a823          	sw	a3,400(s1)
    80002080:	be5d                	j	80001c36 <vmfault+0x15c>
  printf("[pid %d] MEMFULL\n", p->pid);
    80002082:	588c                	lw	a1,48(s1)
    80002084:	00006517          	auipc	a0,0x6
    80002088:	28c50513          	addi	a0,a0,652 # 80008310 <digits+0x2d8>
    8000208c:	c38fe0ef          	jal	ra,800004c4 <printf>
  mem = evict_page_fifo(p, pagetable);
    80002090:	85d6                	mv	a1,s5
    80002092:	8526                	mv	a0,s1
    80002094:	c84ff0ef          	jal	ra,80001518 <evict_page_fifo>
    80002098:	892a                	mv	s2,a0
  if(mem == 0) {
    8000209a:	f12d                	bnez	a0,80001ffc <vmfault+0x522>
    return -1;
    8000209c:	5b7d                	li	s6,-1
    8000209e:	be61                	j	80001c36 <vmfault+0x15c>
      kfree(mem);
    800020a0:	854a                	mv	a0,s2
    800020a2:	91bfe0ef          	jal	ra,800009bc <kfree>
      return -1;
    800020a6:	5b7d                	li	s6,-1
    800020a8:	b679                	j	80001c36 <vmfault+0x15c>
    printf("[pid %d] PAGEFAULT va=0x%lx access=%s cause=invalid\n", 
    800020aa:	588c                	lw	a1,48(s1)
    800020ac:	00006917          	auipc	s2,0x6
    800020b0:	22490913          	addi	s2,s2,548 # 800082d0 <digits+0x298>
    800020b4:	000b1663          	bnez	s6,800020c0 <vmfault+0x5e6>
    800020b8:	00007917          	auipc	s2,0x7
    800020bc:	94090913          	addi	s2,s2,-1728 # 800089f8 <syscalls+0x1f8>
    800020c0:	86ca                	mv	a3,s2
    800020c2:	864e                	mv	a2,s3
    800020c4:	00006517          	auipc	a0,0x6
    800020c8:	3c450513          	addi	a0,a0,964 # 80008488 <digits+0x450>
    800020cc:	bf8fe0ef          	jal	ra,800004c4 <printf>
    printf("[pid %d] KILL invalid-access va=0x%lx access=%s\n", 
    800020d0:	86ca                	mv	a3,s2
    800020d2:	864e                	mv	a2,s3
    800020d4:	588c                	lw	a1,48(s1)
    800020d6:	00006517          	auipc	a0,0x6
    800020da:	3ea50513          	addi	a0,a0,1002 # 800084c0 <digits+0x488>
    800020de:	be6fe0ef          	jal	ra,800004c4 <printf>
    return -1;
    800020e2:	5b7d                	li	s6,-1
    800020e4:	be89                	j	80001c36 <vmfault+0x15c>

00000000800020e6 <copyout>:
  while(len > 0){
    800020e6:	c6f9                	beqz	a3,800021b4 <copyout+0xce>
{
    800020e8:	711d                	addi	sp,sp,-96
    800020ea:	ec86                	sd	ra,88(sp)
    800020ec:	e8a2                	sd	s0,80(sp)
    800020ee:	e4a6                	sd	s1,72(sp)
    800020f0:	e0ca                	sd	s2,64(sp)
    800020f2:	fc4e                	sd	s3,56(sp)
    800020f4:	f852                	sd	s4,48(sp)
    800020f6:	f456                	sd	s5,40(sp)
    800020f8:	f05a                	sd	s6,32(sp)
    800020fa:	ec5e                	sd	s7,24(sp)
    800020fc:	e862                	sd	s8,16(sp)
    800020fe:	e466                	sd	s9,8(sp)
    80002100:	e06a                	sd	s10,0(sp)
    80002102:	1080                	addi	s0,sp,96
    80002104:	8b2a                	mv	s6,a0
    80002106:	8bae                	mv	s7,a1
    80002108:	8c32                	mv	s8,a2
    8000210a:	8ab6                	mv	s5,a3
    va0 = PGROUNDDOWN(dstva);
    8000210c:	74fd                	lui	s1,0xfffff
    8000210e:	8ced                	and	s1,s1,a1
    if(va0 >= MAXVA)
    80002110:	57fd                	li	a5,-1
    80002112:	83e9                	srli	a5,a5,0x1a
    80002114:	0a97e263          	bltu	a5,s1,800021b8 <copyout+0xd2>
    80002118:	6d05                	lui	s10,0x1
    8000211a:	8cbe                	mv	s9,a5
    8000211c:	a015                	j	80002140 <copyout+0x5a>
    memmove((void *)(pa0 + (dstva - va0)), src, n);
    8000211e:	409b8533          	sub	a0,s7,s1
    80002122:	0009861b          	sext.w	a2,s3
    80002126:	85e2                	mv	a1,s8
    80002128:	954a                	add	a0,a0,s2
    8000212a:	b73fe0ef          	jal	ra,80000c9c <memmove>
    len -= n;
    8000212e:	413a8ab3          	sub	s5,s5,s3
    src += n;
    80002132:	9c4e                	add	s8,s8,s3
  while(len > 0){
    80002134:	060a8163          	beqz	s5,80002196 <copyout+0xb0>
    if(va0 >= MAXVA)
    80002138:	094ce263          	bltu	s9,s4,800021bc <copyout+0xd6>
    va0 = PGROUNDDOWN(dstva);
    8000213c:	84d2                	mv	s1,s4
    dstva = va0 + PGSIZE;
    8000213e:	8bd2                	mv	s7,s4
    pa0 = walkaddr(pagetable, va0);
    80002140:	85a6                	mv	a1,s1
    80002142:	855a                	mv	a0,s6
    80002144:	e13fe0ef          	jal	ra,80000f56 <walkaddr>
    80002148:	892a                	mv	s2,a0
    if(pa0 == 0) {
    8000214a:	e901                	bnez	a0,8000215a <copyout+0x74>
      if((pa0 = vmfault(pagetable, va0, 0)) == 0) {
    8000214c:	4601                	li	a2,0
    8000214e:	85a6                	mv	a1,s1
    80002150:	855a                	mv	a0,s6
    80002152:	989ff0ef          	jal	ra,80001ada <vmfault>
    80002156:	892a                	mv	s2,a0
    80002158:	c525                	beqz	a0,800021c0 <copyout+0xda>
    pte = walk(pagetable, va0, 0);
    8000215a:	4601                	li	a2,0
    8000215c:	85a6                	mv	a1,s1
    8000215e:	855a                	mv	a0,s6
    80002160:	d5dfe0ef          	jal	ra,80000ebc <walk>
    if((*pte & PTE_W) == 0) {
    80002164:	611c                	ld	a5,0(a0)
    80002166:	0047f713          	andi	a4,a5,4
    8000216a:	ef11                	bnez	a4,80002186 <copyout+0xa0>
      if((*pte & PTE_U) != 0) {
    8000216c:	8bc1                	andi	a5,a5,16
    8000216e:	cbb9                	beqz	a5,800021c4 <copyout+0xde>
        if(handle_write_fault(pagetable, va0) < 0) {
    80002170:	85a6                	mv	a1,s1
    80002172:	855a                	mv	a0,s6
    80002174:	8c7ff0ef          	jal	ra,80001a3a <handle_write_fault>
    80002178:	04054863          	bltz	a0,800021c8 <copyout+0xe2>
        pte = walk(pagetable, va0, 0);
    8000217c:	4601                	li	a2,0
    8000217e:	85a6                	mv	a1,s1
    80002180:	855a                	mv	a0,s6
    80002182:	d3bfe0ef          	jal	ra,80000ebc <walk>
    n = PGSIZE - (dstva - va0);
    80002186:	01a48a33          	add	s4,s1,s10
    8000218a:	417a09b3          	sub	s3,s4,s7
    if(n > len)
    8000218e:	f93af8e3          	bgeu	s5,s3,8000211e <copyout+0x38>
    80002192:	89d6                	mv	s3,s5
    80002194:	b769                	j	8000211e <copyout+0x38>
  return 0;
    80002196:	4501                	li	a0,0
}
    80002198:	60e6                	ld	ra,88(sp)
    8000219a:	6446                	ld	s0,80(sp)
    8000219c:	64a6                	ld	s1,72(sp)
    8000219e:	6906                	ld	s2,64(sp)
    800021a0:	79e2                	ld	s3,56(sp)
    800021a2:	7a42                	ld	s4,48(sp)
    800021a4:	7aa2                	ld	s5,40(sp)
    800021a6:	7b02                	ld	s6,32(sp)
    800021a8:	6be2                	ld	s7,24(sp)
    800021aa:	6c42                	ld	s8,16(sp)
    800021ac:	6ca2                	ld	s9,8(sp)
    800021ae:	6d02                	ld	s10,0(sp)
    800021b0:	6125                	addi	sp,sp,96
    800021b2:	8082                	ret
  return 0;
    800021b4:	4501                	li	a0,0
}
    800021b6:	8082                	ret
      return -1;
    800021b8:	557d                	li	a0,-1
    800021ba:	bff9                	j	80002198 <copyout+0xb2>
    800021bc:	557d                	li	a0,-1
    800021be:	bfe9                	j	80002198 <copyout+0xb2>
        return -1;
    800021c0:	557d                	li	a0,-1
    800021c2:	bfd9                	j	80002198 <copyout+0xb2>
        return -1;
    800021c4:	557d                	li	a0,-1
    800021c6:	bfc9                	j	80002198 <copyout+0xb2>
          return -1;  // Can't write to this page
    800021c8:	557d                	li	a0,-1
    800021ca:	b7f9                	j	80002198 <copyout+0xb2>

00000000800021cc <copyin>:
  while(len > 0){
    800021cc:	c6c9                	beqz	a3,80002256 <copyin+0x8a>
{
    800021ce:	715d                	addi	sp,sp,-80
    800021d0:	e486                	sd	ra,72(sp)
    800021d2:	e0a2                	sd	s0,64(sp)
    800021d4:	fc26                	sd	s1,56(sp)
    800021d6:	f84a                	sd	s2,48(sp)
    800021d8:	f44e                	sd	s3,40(sp)
    800021da:	f052                	sd	s4,32(sp)
    800021dc:	ec56                	sd	s5,24(sp)
    800021de:	e85a                	sd	s6,16(sp)
    800021e0:	e45e                	sd	s7,8(sp)
    800021e2:	e062                	sd	s8,0(sp)
    800021e4:	0880                	addi	s0,sp,80
    800021e6:	8baa                	mv	s7,a0
    800021e8:	8aae                	mv	s5,a1
    800021ea:	8932                	mv	s2,a2
    800021ec:	8a36                	mv	s4,a3
    va0 = PGROUNDDOWN(srcva);
    800021ee:	7c7d                	lui	s8,0xfffff
    n = PGSIZE - (srcva - va0);
    800021f0:	6b05                	lui	s6,0x1
    800021f2:	a035                	j	8000221e <copyin+0x52>
    800021f4:	412984b3          	sub	s1,s3,s2
    800021f8:	94da                	add	s1,s1,s6
    if(n > len)
    800021fa:	009a7363          	bgeu	s4,s1,80002200 <copyin+0x34>
    800021fe:	84d2                	mv	s1,s4
    memmove(dst, (void *)(pa0 + (srcva - va0)), n);
    80002200:	413905b3          	sub	a1,s2,s3
    80002204:	0004861b          	sext.w	a2,s1
    80002208:	95aa                	add	a1,a1,a0
    8000220a:	8556                	mv	a0,s5
    8000220c:	a91fe0ef          	jal	ra,80000c9c <memmove>
    len -= n;
    80002210:	409a0a33          	sub	s4,s4,s1
    dst += n;
    80002214:	9aa6                	add	s5,s5,s1
    srcva = va0 + PGSIZE;
    80002216:	01698933          	add	s2,s3,s6
  while(len > 0){
    8000221a:	020a0163          	beqz	s4,8000223c <copyin+0x70>
    va0 = PGROUNDDOWN(srcva);
    8000221e:	018979b3          	and	s3,s2,s8
    pa0 = walkaddr(pagetable, va0);
    80002222:	85ce                	mv	a1,s3
    80002224:	855e                	mv	a0,s7
    80002226:	d31fe0ef          	jal	ra,80000f56 <walkaddr>
    if(pa0 == 0) {
    8000222a:	f569                	bnez	a0,800021f4 <copyin+0x28>
      if((pa0 = vmfault(pagetable, va0, 0)) == 0) {
    8000222c:	4601                	li	a2,0
    8000222e:	85ce                	mv	a1,s3
    80002230:	855e                	mv	a0,s7
    80002232:	8a9ff0ef          	jal	ra,80001ada <vmfault>
    80002236:	fd5d                	bnez	a0,800021f4 <copyin+0x28>
        return -1;
    80002238:	557d                	li	a0,-1
    8000223a:	a011                	j	8000223e <copyin+0x72>
  return 0;
    8000223c:	4501                	li	a0,0
}
    8000223e:	60a6                	ld	ra,72(sp)
    80002240:	6406                	ld	s0,64(sp)
    80002242:	74e2                	ld	s1,56(sp)
    80002244:	7942                	ld	s2,48(sp)
    80002246:	79a2                	ld	s3,40(sp)
    80002248:	7a02                	ld	s4,32(sp)
    8000224a:	6ae2                	ld	s5,24(sp)
    8000224c:	6b42                	ld	s6,16(sp)
    8000224e:	6ba2                	ld	s7,8(sp)
    80002250:	6c02                	ld	s8,0(sp)
    80002252:	6161                	addi	sp,sp,80
    80002254:	8082                	ret
  return 0;
    80002256:	4501                	li	a0,0
}
    80002258:	8082                	ret

000000008000225a <proc_mapstacks>:
// Helper function to format swap filename
// Converts number to string with leading zeros

void
proc_mapstacks(pagetable_t kpgtbl)
{
    8000225a:	715d                	addi	sp,sp,-80
    8000225c:	e486                	sd	ra,72(sp)
    8000225e:	e0a2                	sd	s0,64(sp)
    80002260:	fc26                	sd	s1,56(sp)
    80002262:	f84a                	sd	s2,48(sp)
    80002264:	f44e                	sd	s3,40(sp)
    80002266:	f052                	sd	s4,32(sp)
    80002268:	ec56                	sd	s5,24(sp)
    8000226a:	e85a                	sd	s6,16(sp)
    8000226c:	e45e                	sd	s7,8(sp)
    8000226e:	0880                	addi	s0,sp,80
    80002270:	8a2a                	mv	s4,a0
  struct proc *p;
  
  for(p = proc; p < &proc[NPROC]; p++) {
    80002272:	0000f497          	auipc	s1,0xf
    80002276:	fd648493          	addi	s1,s1,-42 # 80011248 <proc>
    char *pa = kalloc();
    if(pa == 0)
      panic("kalloc");
    uint64 va = KSTACK((int) (p - proc));
    8000227a:	8ba6                	mv	s7,s1
    8000227c:	00006b17          	auipc	s6,0x6
    80002280:	d84b0b13          	addi	s6,s6,-636 # 80008000 <etext>
    80002284:	04000937          	lui	s2,0x4000
    80002288:	197d                	addi	s2,s2,-1
    8000228a:	0932                	slli	s2,s2,0xc
  for(p = proc; p < &proc[NPROC]; p++) {
    8000228c:	6989                	lui	s3,0x2
    8000228e:	bf098993          	addi	s3,s3,-1040 # 1bf0 <_entry-0x7fffe410>
    80002292:	0007fa97          	auipc	s5,0x7f
    80002296:	bb6a8a93          	addi	s5,s5,-1098 # 80080e48 <tickslock>
    char *pa = kalloc();
    8000229a:	803fe0ef          	jal	ra,80000a9c <kalloc>
    8000229e:	862a                	mv	a2,a0
    if(pa == 0)
    800022a0:	c121                	beqz	a0,800022e0 <proc_mapstacks+0x86>
    uint64 va = KSTACK((int) (p - proc));
    800022a2:	417485b3          	sub	a1,s1,s7
    800022a6:	8591                	srai	a1,a1,0x4
    800022a8:	000b3783          	ld	a5,0(s6)
    800022ac:	02f585b3          	mul	a1,a1,a5
    800022b0:	2585                	addiw	a1,a1,1
    800022b2:	00d5959b          	slliw	a1,a1,0xd
    kvmmap(kpgtbl, va, (uint64)pa, PGSIZE, PTE_R | PTE_W);
    800022b6:	4719                	li	a4,6
    800022b8:	6685                	lui	a3,0x1
    800022ba:	40b905b3          	sub	a1,s2,a1
    800022be:	8552                	mv	a0,s4
    800022c0:	d85fe0ef          	jal	ra,80001044 <kvmmap>
  for(p = proc; p < &proc[NPROC]; p++) {
    800022c4:	94ce                	add	s1,s1,s3
    800022c6:	fd549ae3          	bne	s1,s5,8000229a <proc_mapstacks+0x40>
  }
}
    800022ca:	60a6                	ld	ra,72(sp)
    800022cc:	6406                	ld	s0,64(sp)
    800022ce:	74e2                	ld	s1,56(sp)
    800022d0:	7942                	ld	s2,48(sp)
    800022d2:	79a2                	ld	s3,40(sp)
    800022d4:	7a02                	ld	s4,32(sp)
    800022d6:	6ae2                	ld	s5,24(sp)
    800022d8:	6b42                	ld	s6,16(sp)
    800022da:	6ba2                	ld	s7,8(sp)
    800022dc:	6161                	addi	sp,sp,80
    800022de:	8082                	ret
      panic("kalloc");
    800022e0:	00006517          	auipc	a0,0x6
    800022e4:	21850513          	addi	a0,a0,536 # 800084f8 <digits+0x4c0>
    800022e8:	ca2fe0ef          	jal	ra,8000078a <panic>

00000000800022ec <procinit>:

// initialize the proc table.
void
procinit(void)
{
    800022ec:	715d                	addi	sp,sp,-80
    800022ee:	e486                	sd	ra,72(sp)
    800022f0:	e0a2                	sd	s0,64(sp)
    800022f2:	fc26                	sd	s1,56(sp)
    800022f4:	f84a                	sd	s2,48(sp)
    800022f6:	f44e                	sd	s3,40(sp)
    800022f8:	f052                	sd	s4,32(sp)
    800022fa:	ec56                	sd	s5,24(sp)
    800022fc:	e85a                	sd	s6,16(sp)
    800022fe:	e45e                	sd	s7,8(sp)
    80002300:	0880                	addi	s0,sp,80
  struct proc *p;
  
  initlock(&pid_lock, "nextpid");
    80002302:	00006597          	auipc	a1,0x6
    80002306:	1fe58593          	addi	a1,a1,510 # 80008500 <digits+0x4c8>
    8000230a:	0000f517          	auipc	a0,0xf
    8000230e:	b0e50513          	addi	a0,a0,-1266 # 80010e18 <pid_lock>
    80002312:	fdafe0ef          	jal	ra,80000aec <initlock>
  initlock(&wait_lock, "wait_lock");
    80002316:	00006597          	auipc	a1,0x6
    8000231a:	1f258593          	addi	a1,a1,498 # 80008508 <digits+0x4d0>
    8000231e:	0000f517          	auipc	a0,0xf
    80002322:	b1250513          	addi	a0,a0,-1262 # 80010e30 <wait_lock>
    80002326:	fc6fe0ef          	jal	ra,80000aec <initlock>
  for(p = proc; p < &proc[NPROC]; p++) {
    8000232a:	0000f497          	auipc	s1,0xf
    8000232e:	f1e48493          	addi	s1,s1,-226 # 80011248 <proc>
      initlock(&p->lock, "proc");
    80002332:	00006b97          	auipc	s7,0x6
    80002336:	1e6b8b93          	addi	s7,s7,486 # 80008518 <digits+0x4e0>
      p->state = UNUSED;
      p->kstack = KSTACK((int) (p - proc));
    8000233a:	8b26                	mv	s6,s1
    8000233c:	00006a97          	auipc	s5,0x6
    80002340:	cc4a8a93          	addi	s5,s5,-828 # 80008000 <etext>
    80002344:	04000937          	lui	s2,0x4000
    80002348:	197d                	addi	s2,s2,-1
    8000234a:	0932                	slli	s2,s2,0xc
  for(p = proc; p < &proc[NPROC]; p++) {
    8000234c:	6989                	lui	s3,0x2
    8000234e:	bf098993          	addi	s3,s3,-1040 # 1bf0 <_entry-0x7fffe410>
    80002352:	0007fa17          	auipc	s4,0x7f
    80002356:	af6a0a13          	addi	s4,s4,-1290 # 80080e48 <tickslock>
      initlock(&p->lock, "proc");
    8000235a:	85de                	mv	a1,s7
    8000235c:	8526                	mv	a0,s1
    8000235e:	f8efe0ef          	jal	ra,80000aec <initlock>
      p->state = UNUSED;
    80002362:	0004ac23          	sw	zero,24(s1)
      p->kstack = KSTACK((int) (p - proc));
    80002366:	416487b3          	sub	a5,s1,s6
    8000236a:	8791                	srai	a5,a5,0x4
    8000236c:	000ab703          	ld	a4,0(s5)
    80002370:	02e787b3          	mul	a5,a5,a4
    80002374:	2785                	addiw	a5,a5,1
    80002376:	00d7979b          	slliw	a5,a5,0xd
    8000237a:	40f907b3          	sub	a5,s2,a5
    8000237e:	e0bc                	sd	a5,64(s1)
  for(p = proc; p < &proc[NPROC]; p++) {
    80002380:	94ce                	add	s1,s1,s3
    80002382:	fd449ce3          	bne	s1,s4,8000235a <procinit+0x6e>
  }
}
    80002386:	60a6                	ld	ra,72(sp)
    80002388:	6406                	ld	s0,64(sp)
    8000238a:	74e2                	ld	s1,56(sp)
    8000238c:	7942                	ld	s2,48(sp)
    8000238e:	79a2                	ld	s3,40(sp)
    80002390:	7a02                	ld	s4,32(sp)
    80002392:	6ae2                	ld	s5,24(sp)
    80002394:	6b42                	ld	s6,16(sp)
    80002396:	6ba2                	ld	s7,8(sp)
    80002398:	6161                	addi	sp,sp,80
    8000239a:	8082                	ret

000000008000239c <cpuid>:
// Must be called with interrupts disabled,
// to prevent race with process being moved
// to a different CPU.
int
cpuid()
{
    8000239c:	1141                	addi	sp,sp,-16
    8000239e:	e422                	sd	s0,8(sp)
    800023a0:	0800                	addi	s0,sp,16
  asm volatile("mv %0, tp" : "=r" (x) );
    800023a2:	8512                	mv	a0,tp
  int id = r_tp();
  return id;
}
    800023a4:	2501                	sext.w	a0,a0
    800023a6:	6422                	ld	s0,8(sp)
    800023a8:	0141                	addi	sp,sp,16
    800023aa:	8082                	ret

00000000800023ac <mycpu>:

// Return this CPU's cpu struct.
// Interrupts must be disabled.
struct cpu*
mycpu(void)
{
    800023ac:	1141                	addi	sp,sp,-16
    800023ae:	e422                	sd	s0,8(sp)
    800023b0:	0800                	addi	s0,sp,16
    800023b2:	8792                	mv	a5,tp
  int id = cpuid();
  struct cpu *c = &cpus[id];
    800023b4:	2781                	sext.w	a5,a5
    800023b6:	079e                	slli	a5,a5,0x7
  return c;
}
    800023b8:	0000f517          	auipc	a0,0xf
    800023bc:	a9050513          	addi	a0,a0,-1392 # 80010e48 <cpus>
    800023c0:	953e                	add	a0,a0,a5
    800023c2:	6422                	ld	s0,8(sp)
    800023c4:	0141                	addi	sp,sp,16
    800023c6:	8082                	ret

00000000800023c8 <myproc>:

// Return the current struct proc *, or zero if none.
struct proc*
myproc(void)
{
    800023c8:	1101                	addi	sp,sp,-32
    800023ca:	ec06                	sd	ra,24(sp)
    800023cc:	e822                	sd	s0,16(sp)
    800023ce:	e426                	sd	s1,8(sp)
    800023d0:	1000                	addi	s0,sp,32
  push_off();
    800023d2:	f5afe0ef          	jal	ra,80000b2c <push_off>
    800023d6:	8792                	mv	a5,tp
  struct cpu *c = mycpu();
  struct proc *p = c->proc;
    800023d8:	2781                	sext.w	a5,a5
    800023da:	079e                	slli	a5,a5,0x7
    800023dc:	0000f717          	auipc	a4,0xf
    800023e0:	a3c70713          	addi	a4,a4,-1476 # 80010e18 <pid_lock>
    800023e4:	97ba                	add	a5,a5,a4
    800023e6:	7b84                	ld	s1,48(a5)
  pop_off();
    800023e8:	fc8fe0ef          	jal	ra,80000bb0 <pop_off>
  return p;
}
    800023ec:	8526                	mv	a0,s1
    800023ee:	60e2                	ld	ra,24(sp)
    800023f0:	6442                	ld	s0,16(sp)
    800023f2:	64a2                	ld	s1,8(sp)
    800023f4:	6105                	addi	sp,sp,32
    800023f6:	8082                	ret

00000000800023f8 <forkret>:

// A fork child's very first scheduling by scheduler()
// will swtch to forkret.
void
forkret(void)
{
    800023f8:	7179                	addi	sp,sp,-48
    800023fa:	f406                	sd	ra,40(sp)
    800023fc:	f022                	sd	s0,32(sp)
    800023fe:	ec26                	sd	s1,24(sp)
    80002400:	1800                	addi	s0,sp,48
  extern char userret[];
  static int first = 1;
  struct proc *p = myproc();
    80002402:	fc7ff0ef          	jal	ra,800023c8 <myproc>
    80002406:	84aa                	mv	s1,a0

  // Still holding p->lock from scheduler.
  release(&p->lock);
    80002408:	ffcfe0ef          	jal	ra,80000c04 <release>

  if (first) {
    8000240c:	00007797          	auipc	a5,0x7
    80002410:	8d47a783          	lw	a5,-1836(a5) # 80008ce0 <first.1>
    80002414:	cf8d                	beqz	a5,8000244e <forkret+0x56>
    // File system initialization must be run in the context of a
    // regular process (e.g., because it calls sleep), and thus cannot
    // be run from main().
    fsinit(ROOTDEV);
    80002416:	4505                	li	a0,1
    80002418:	62f010ef          	jal	ra,80004246 <fsinit>

    first = 0;
    8000241c:	00007797          	auipc	a5,0x7
    80002420:	8c07a223          	sw	zero,-1852(a5) # 80008ce0 <first.1>
    // ensure other cores see first=0.
    __sync_synchronize();
    80002424:	0ff0000f          	fence

    // We can invoke kexec() now that file system is initialized.
    // Put the return value (argc) of kexec into a0.
    p->trapframe->a0 = kexec("/init", (char *[]){ "/init", 0 });
    80002428:	00006517          	auipc	a0,0x6
    8000242c:	0f850513          	addi	a0,a0,248 # 80008520 <digits+0x4e8>
    80002430:	fca43823          	sd	a0,-48(s0)
    80002434:	fc043c23          	sd	zero,-40(s0)
    80002438:	fd040593          	addi	a1,s0,-48
    8000243c:	6a9020ef          	jal	ra,800052e4 <kexec>
    80002440:	6cbc                	ld	a5,88(s1)
    80002442:	fba8                	sd	a0,112(a5)
    if (p->trapframe->a0 == -1) {
    80002444:	6cbc                	ld	a5,88(s1)
    80002446:	7bb8                	ld	a4,112(a5)
    80002448:	57fd                	li	a5,-1
    8000244a:	02f70d63          	beq	a4,a5,80002484 <forkret+0x8c>
      panic("exec");
    }
  }

  // return to user space, mimicing usertrap()'s return.
  prepare_return();
    8000244e:	3ad000ef          	jal	ra,80002ffa <prepare_return>
  uint64 satp = MAKE_SATP(p->pagetable);
    80002452:	68a8                	ld	a0,80(s1)
    80002454:	8131                	srli	a0,a0,0xc
  uint64 trampoline_userret = TRAMPOLINE + (userret - trampoline);
    80002456:	04000737          	lui	a4,0x4000
    8000245a:	00005797          	auipc	a5,0x5
    8000245e:	c4278793          	addi	a5,a5,-958 # 8000709c <userret>
    80002462:	00005697          	auipc	a3,0x5
    80002466:	b9e68693          	addi	a3,a3,-1122 # 80007000 <_trampoline>
    8000246a:	8f95                	sub	a5,a5,a3
    8000246c:	177d                	addi	a4,a4,-1
    8000246e:	0732                	slli	a4,a4,0xc
    80002470:	97ba                	add	a5,a5,a4
  ((void (*)(uint64))trampoline_userret)(satp);
    80002472:	577d                	li	a4,-1
    80002474:	177e                	slli	a4,a4,0x3f
    80002476:	8d59                	or	a0,a0,a4
    80002478:	9782                	jalr	a5
}
    8000247a:	70a2                	ld	ra,40(sp)
    8000247c:	7402                	ld	s0,32(sp)
    8000247e:	64e2                	ld	s1,24(sp)
    80002480:	6145                	addi	sp,sp,48
    80002482:	8082                	ret
      panic("exec");
    80002484:	00006517          	auipc	a0,0x6
    80002488:	0a450513          	addi	a0,a0,164 # 80008528 <digits+0x4f0>
    8000248c:	afefe0ef          	jal	ra,8000078a <panic>

0000000080002490 <allocpid>:
{
    80002490:	1101                	addi	sp,sp,-32
    80002492:	ec06                	sd	ra,24(sp)
    80002494:	e822                	sd	s0,16(sp)
    80002496:	e426                	sd	s1,8(sp)
    80002498:	e04a                	sd	s2,0(sp)
    8000249a:	1000                	addi	s0,sp,32
  acquire(&pid_lock);
    8000249c:	0000f917          	auipc	s2,0xf
    800024a0:	97c90913          	addi	s2,s2,-1668 # 80010e18 <pid_lock>
    800024a4:	854a                	mv	a0,s2
    800024a6:	ec6fe0ef          	jal	ra,80000b6c <acquire>
  pid = nextpid;
    800024aa:	00007797          	auipc	a5,0x7
    800024ae:	83a78793          	addi	a5,a5,-1990 # 80008ce4 <nextpid>
    800024b2:	4384                	lw	s1,0(a5)
  nextpid = nextpid + 1;
    800024b4:	0014871b          	addiw	a4,s1,1
    800024b8:	c398                	sw	a4,0(a5)
  release(&pid_lock);
    800024ba:	854a                	mv	a0,s2
    800024bc:	f48fe0ef          	jal	ra,80000c04 <release>
}
    800024c0:	8526                	mv	a0,s1
    800024c2:	60e2                	ld	ra,24(sp)
    800024c4:	6442                	ld	s0,16(sp)
    800024c6:	64a2                	ld	s1,8(sp)
    800024c8:	6902                	ld	s2,0(sp)
    800024ca:	6105                	addi	sp,sp,32
    800024cc:	8082                	ret

00000000800024ce <proc_pagetable>:
{
    800024ce:	1101                	addi	sp,sp,-32
    800024d0:	ec06                	sd	ra,24(sp)
    800024d2:	e822                	sd	s0,16(sp)
    800024d4:	e426                	sd	s1,8(sp)
    800024d6:	e04a                	sd	s2,0(sp)
    800024d8:	1000                	addi	s0,sp,32
    800024da:	892a                	mv	s2,a0
  pagetable = uvmcreate();
    800024dc:	c5ffe0ef          	jal	ra,8000113a <uvmcreate>
    800024e0:	84aa                	mv	s1,a0
  if(pagetable == 0)
    800024e2:	cd05                	beqz	a0,8000251a <proc_pagetable+0x4c>
  if(mappages(pagetable, TRAMPOLINE, PGSIZE,
    800024e4:	4729                	li	a4,10
    800024e6:	00005697          	auipc	a3,0x5
    800024ea:	b1a68693          	addi	a3,a3,-1254 # 80007000 <_trampoline>
    800024ee:	6605                	lui	a2,0x1
    800024f0:	040005b7          	lui	a1,0x4000
    800024f4:	15fd                	addi	a1,a1,-1
    800024f6:	05b2                	slli	a1,a1,0xc
    800024f8:	a9dfe0ef          	jal	ra,80000f94 <mappages>
    800024fc:	02054663          	bltz	a0,80002528 <proc_pagetable+0x5a>
  if(mappages(pagetable, TRAPFRAME, PGSIZE,
    80002500:	4719                	li	a4,6
    80002502:	05893683          	ld	a3,88(s2)
    80002506:	6605                	lui	a2,0x1
    80002508:	020005b7          	lui	a1,0x2000
    8000250c:	15fd                	addi	a1,a1,-1
    8000250e:	05b6                	slli	a1,a1,0xd
    80002510:	8526                	mv	a0,s1
    80002512:	a83fe0ef          	jal	ra,80000f94 <mappages>
    80002516:	00054f63          	bltz	a0,80002534 <proc_pagetable+0x66>
}
    8000251a:	8526                	mv	a0,s1
    8000251c:	60e2                	ld	ra,24(sp)
    8000251e:	6442                	ld	s0,16(sp)
    80002520:	64a2                	ld	s1,8(sp)
    80002522:	6902                	ld	s2,0(sp)
    80002524:	6105                	addi	sp,sp,32
    80002526:	8082                	ret
    uvmfree(pagetable, 0);
    80002528:	4581                	li	a1,0
    8000252a:	8526                	mv	a0,s1
    8000252c:	dedfe0ef          	jal	ra,80001318 <uvmfree>
    return 0;
    80002530:	4481                	li	s1,0
    80002532:	b7e5                	j	8000251a <proc_pagetable+0x4c>
    uvmunmap(pagetable, TRAMPOLINE, 1, 0);
    80002534:	4681                	li	a3,0
    80002536:	4605                	li	a2,1
    80002538:	040005b7          	lui	a1,0x4000
    8000253c:	15fd                	addi	a1,a1,-1
    8000253e:	05b2                	slli	a1,a1,0xc
    80002540:	8526                	mv	a0,s1
    80002542:	c1ffe0ef          	jal	ra,80001160 <uvmunmap>
    uvmfree(pagetable, 0);
    80002546:	4581                	li	a1,0
    80002548:	8526                	mv	a0,s1
    8000254a:	dcffe0ef          	jal	ra,80001318 <uvmfree>
    return 0;
    8000254e:	4481                	li	s1,0
    80002550:	b7e9                	j	8000251a <proc_pagetable+0x4c>

0000000080002552 <proc_freepagetable>:
{
    80002552:	1101                	addi	sp,sp,-32
    80002554:	ec06                	sd	ra,24(sp)
    80002556:	e822                	sd	s0,16(sp)
    80002558:	e426                	sd	s1,8(sp)
    8000255a:	e04a                	sd	s2,0(sp)
    8000255c:	1000                	addi	s0,sp,32
    8000255e:	84aa                	mv	s1,a0
    80002560:	892e                	mv	s2,a1
  uvmunmap(pagetable, TRAMPOLINE, 1, 0);
    80002562:	4681                	li	a3,0
    80002564:	4605                	li	a2,1
    80002566:	040005b7          	lui	a1,0x4000
    8000256a:	15fd                	addi	a1,a1,-1
    8000256c:	05b2                	slli	a1,a1,0xc
    8000256e:	bf3fe0ef          	jal	ra,80001160 <uvmunmap>
  uvmunmap(pagetable, TRAPFRAME, 1, 0);
    80002572:	4681                	li	a3,0
    80002574:	4605                	li	a2,1
    80002576:	020005b7          	lui	a1,0x2000
    8000257a:	15fd                	addi	a1,a1,-1
    8000257c:	05b6                	slli	a1,a1,0xd
    8000257e:	8526                	mv	a0,s1
    80002580:	be1fe0ef          	jal	ra,80001160 <uvmunmap>
  uvmfree(pagetable, sz);
    80002584:	85ca                	mv	a1,s2
    80002586:	8526                	mv	a0,s1
    80002588:	d91fe0ef          	jal	ra,80001318 <uvmfree>
}
    8000258c:	60e2                	ld	ra,24(sp)
    8000258e:	6442                	ld	s0,16(sp)
    80002590:	64a2                	ld	s1,8(sp)
    80002592:	6902                	ld	s2,0(sp)
    80002594:	6105                	addi	sp,sp,32
    80002596:	8082                	ret

0000000080002598 <freeproc>:
{
    80002598:	1101                	addi	sp,sp,-32
    8000259a:	ec06                	sd	ra,24(sp)
    8000259c:	e822                	sd	s0,16(sp)
    8000259e:	e426                	sd	s1,8(sp)
    800025a0:	1000                	addi	s0,sp,32
    800025a2:	84aa                	mv	s1,a0
  if(p->trapframe)
    800025a4:	6d28                	ld	a0,88(a0)
    800025a6:	c119                	beqz	a0,800025ac <freeproc+0x14>
    kfree((void*)p->trapframe);
    800025a8:	c14fe0ef          	jal	ra,800009bc <kfree>
  p->trapframe = 0;
    800025ac:	0404bc23          	sd	zero,88(s1)
  if(p->pagetable)
    800025b0:	68a8                	ld	a0,80(s1)
    800025b2:	c501                	beqz	a0,800025ba <freeproc+0x22>
    proc_freepagetable(p->pagetable, p->sz);
    800025b4:	64ac                	ld	a1,72(s1)
    800025b6:	f9dff0ef          	jal	ra,80002552 <proc_freepagetable>
  p->pagetable = 0;
    800025ba:	0404b823          	sd	zero,80(s1)
  if(p->exec_inode) {
    800025be:	1984b503          	ld	a0,408(s1)
    800025c2:	c509                	beqz	a0,800025cc <freeproc+0x34>
    iput(p->exec_inode);
    800025c4:	311010ef          	jal	ra,800040d4 <iput>
    p->exec_inode = 0;
    800025c8:	1804bc23          	sd	zero,408(s1)
  p->sz = 0;
    800025cc:	0404b423          	sd	zero,72(s1)
  p->pid = 0;
    800025d0:	0204a823          	sw	zero,48(s1)
  p->parent = 0;
    800025d4:	0204bc23          	sd	zero,56(s1)
  p->name[0] = 0;
    800025d8:	14048c23          	sb	zero,344(s1)
  p->chan = 0;
    800025dc:	0204b023          	sd	zero,32(s1)
  p->killed = 0;
    800025e0:	0204a423          	sw	zero,40(s1)
  p->xstate = 0;
    800025e4:	0204a623          	sw	zero,44(s1)
  p->state = UNUSED;
    800025e8:	0004ac23          	sw	zero,24(s1)
}
    800025ec:	60e2                	ld	ra,24(sp)
    800025ee:	6442                	ld	s0,16(sp)
    800025f0:	64a2                	ld	s1,8(sp)
    800025f2:	6105                	addi	sp,sp,32
    800025f4:	8082                	ret

00000000800025f6 <allocproc>:
{
    800025f6:	7179                	addi	sp,sp,-48
    800025f8:	f406                	sd	ra,40(sp)
    800025fa:	f022                	sd	s0,32(sp)
    800025fc:	ec26                	sd	s1,24(sp)
    800025fe:	e84a                	sd	s2,16(sp)
    80002600:	e44e                	sd	s3,8(sp)
    80002602:	e052                	sd	s4,0(sp)
    80002604:	1800                	addi	s0,sp,48
  for(p = proc; p < &proc[NPROC]; p++) {
    80002606:	0000f497          	auipc	s1,0xf
    8000260a:	c4248493          	addi	s1,s1,-958 # 80011248 <proc>
    8000260e:	6989                	lui	s3,0x2
    80002610:	bf098993          	addi	s3,s3,-1040 # 1bf0 <_entry-0x7fffe410>
    80002614:	0007fa17          	auipc	s4,0x7f
    80002618:	834a0a13          	addi	s4,s4,-1996 # 80080e48 <tickslock>
    acquire(&p->lock);
    8000261c:	8926                	mv	s2,s1
    8000261e:	8526                	mv	a0,s1
    80002620:	d4cfe0ef          	jal	ra,80000b6c <acquire>
    if(p->state == UNUSED) {
    80002624:	4c9c                	lw	a5,24(s1)
    80002626:	cb89                	beqz	a5,80002638 <allocproc+0x42>
      release(&p->lock);
    80002628:	8526                	mv	a0,s1
    8000262a:	ddafe0ef          	jal	ra,80000c04 <release>
  for(p = proc; p < &proc[NPROC]; p++) {
    8000262e:	94ce                	add	s1,s1,s3
    80002630:	ff4496e3          	bne	s1,s4,8000261c <allocproc+0x26>
  return 0;
    80002634:	4481                	li	s1,0
    80002636:	a0f1                	j	80002702 <allocproc+0x10c>
  p->pid = allocpid();
    80002638:	e59ff0ef          	jal	ra,80002490 <allocpid>
    8000263c:	d888                	sw	a0,48(s1)
  p->state = USED;
    8000263e:	4785                	li	a5,1
    80002640:	cc9c                	sw	a5,24(s1)
  if((p->trapframe = (struct trapframe *)kalloc()) == 0){
    80002642:	c5afe0ef          	jal	ra,80000a9c <kalloc>
    80002646:	89aa                	mv	s3,a0
    80002648:	eca8                	sd	a0,88(s1)
    8000264a:	c569                	beqz	a0,80002714 <allocproc+0x11e>
  p->pagetable = proc_pagetable(p);
    8000264c:	8526                	mv	a0,s1
    8000264e:	e81ff0ef          	jal	ra,800024ce <proc_pagetable>
    80002652:	89aa                	mv	s3,a0
    80002654:	e8a8                	sd	a0,80(s1)
  if(p->pagetable == 0){
    80002656:	c579                	beqz	a0,80002724 <allocproc+0x12e>
  memset(&p->context, 0, sizeof(p->context));
    80002658:	07000613          	li	a2,112
    8000265c:	4581                	li	a1,0
    8000265e:	06048513          	addi	a0,s1,96
    80002662:	ddefe0ef          	jal	ra,80000c40 <memset>
  p->context.ra = (uint64)forkret;
    80002666:	00000797          	auipc	a5,0x0
    8000266a:	d9278793          	addi	a5,a5,-622 # 800023f8 <forkret>
    8000266e:	f0bc                	sd	a5,96(s1)
  p->context.sp = p->kstack + PGSIZE;
    80002670:	60bc                	ld	a5,64(s1)
    80002672:	6705                	lui	a4,0x1
    80002674:	97ba                	add	a5,a5,a4
    80002676:	f4bc                	sd	a5,104(s1)
  p->text_start = 0;
    80002678:	1604b423          	sd	zero,360(s1)
  p->text_end = 0;
    8000267c:	1604b823          	sd	zero,368(s1)
  p->data_start = 0;
    80002680:	1604bc23          	sd	zero,376(s1)
  p->data_end = 0;
    80002684:	1804b023          	sd	zero,384(s1)
  p->heap_start = 0;
    80002688:	1804b423          	sd	zero,392(s1)
  p->next_fifo_seq = 0;
    8000268c:	1804a823          	sw	zero,400(s1)
  p->exec_inode = 0;
    80002690:	1804bc23          	sd	zero,408(s1)
  p->num_resident = 0;
    80002694:	7c04a023          	sw	zero,1984(s1)
for(int i = 0; i < MAX_RESIDENT_PAGES; i++) {
    80002698:	1c048793          	addi	a5,s1,448
    8000269c:	7c048693          	addi	a3,s1,1984
    p->resident_pages[i].seq = -1;
    800026a0:	577d                	li	a4,-1
    p->resident_pages[i].va = 0;
    800026a2:	0007b023          	sd	zero,0(a5)
    p->resident_pages[i].seq = -1;
    800026a6:	c798                	sw	a4,8(a5)
    p->resident_pages[i].is_dirty = 0;
    800026a8:	0007a623          	sw	zero,12(a5)
    p->resident_pages[i].swap_slot = -1;
    800026ac:	cb98                	sw	a4,16(a5)
    p->resident_pages[i].last_used_seq = -1;  // ADD THIS LINE
    800026ae:	cbd8                	sw	a4,20(a5)
for(int i = 0; i < MAX_RESIDENT_PAGES; i++) {
    800026b0:	07e1                	addi	a5,a5,24
    800026b2:	fed798e3          	bne	a5,a3,800026a2 <allocproc+0xac>
    800026b6:	7c848793          	addi	a5,s1,1992
    800026ba:	6705                	lui	a4,0x1
    800026bc:	bc870713          	addi	a4,a4,-1080 # bc8 <_entry-0x7ffff438>
    800026c0:	974a                	add	a4,a4,s2
    p->swapped_pages[i].swap_slot = -1;
    800026c2:	56fd                	li	a3,-1
    p->swapped_pages[i].va = 0;
    800026c4:	0007b023          	sd	zero,0(a5)
    p->swapped_pages[i].swap_slot = -1;
    800026c8:	c794                	sw	a3,8(a5)
  for(int i = 0; i < MAX_RESIDENT_PAGES; i++) {
    800026ca:	07c1                	addi	a5,a5,16
    800026cc:	fee79ce3          	bne	a5,a4,800026c4 <allocproc+0xce>
  p->num_swapped = 0;
    800026d0:	6785                	lui	a5,0x1
    800026d2:	00f48733          	add	a4,s1,a5
    800026d6:	bc072423          	sw	zero,-1080(a4)
  p->swapfile = 0;                    // No swap file yet
    800026da:	bc073823          	sd	zero,-1072(a4)
  p->swap_filename[0] = '\0';         // Empty filename
    800026de:	bc070c23          	sb	zero,-1064(a4)
  p->num_swap_slots_used = 0;         // No slots used yet
    800026e2:	6709                	lui	a4,0x2
    800026e4:	00e486b3          	add	a3,s1,a4
    800026e8:	be06a623          	sw	zero,-1044(a3)
  for(int i = 0; i < 1024; i++) {
    800026ec:	bec78793          	addi	a5,a5,-1044 # bec <_entry-0x7ffff414>
    800026f0:	97a6                	add	a5,a5,s1
    800026f2:	bec70713          	addi	a4,a4,-1044 # 1bec <_entry-0x7fffe414>
    800026f6:	974a                	add	a4,a4,s2
    p->swap_slots[i] = 0;             // Mark all slots as free
    800026f8:	0007a023          	sw	zero,0(a5)
  for(int i = 0; i < 1024; i++) {
    800026fc:	0791                	addi	a5,a5,4
    800026fe:	fee79de3          	bne	a5,a4,800026f8 <allocproc+0x102>
}
    80002702:	8526                	mv	a0,s1
    80002704:	70a2                	ld	ra,40(sp)
    80002706:	7402                	ld	s0,32(sp)
    80002708:	64e2                	ld	s1,24(sp)
    8000270a:	6942                	ld	s2,16(sp)
    8000270c:	69a2                	ld	s3,8(sp)
    8000270e:	6a02                	ld	s4,0(sp)
    80002710:	6145                	addi	sp,sp,48
    80002712:	8082                	ret
    freeproc(p);
    80002714:	8526                	mv	a0,s1
    80002716:	e83ff0ef          	jal	ra,80002598 <freeproc>
    release(&p->lock);
    8000271a:	8526                	mv	a0,s1
    8000271c:	ce8fe0ef          	jal	ra,80000c04 <release>
    return 0;
    80002720:	84ce                	mv	s1,s3
    80002722:	b7c5                	j	80002702 <allocproc+0x10c>
    freeproc(p);
    80002724:	8526                	mv	a0,s1
    80002726:	e73ff0ef          	jal	ra,80002598 <freeproc>
    release(&p->lock);
    8000272a:	8526                	mv	a0,s1
    8000272c:	cd8fe0ef          	jal	ra,80000c04 <release>
    return 0;
    80002730:	84ce                	mv	s1,s3
    80002732:	bfc1                	j	80002702 <allocproc+0x10c>

0000000080002734 <userinit>:
{
    80002734:	1101                	addi	sp,sp,-32
    80002736:	ec06                	sd	ra,24(sp)
    80002738:	e822                	sd	s0,16(sp)
    8000273a:	e426                	sd	s1,8(sp)
    8000273c:	1000                	addi	s0,sp,32
  p = allocproc();
    8000273e:	eb9ff0ef          	jal	ra,800025f6 <allocproc>
    80002742:	84aa                	mv	s1,a0
  initproc = p;
    80002744:	00006797          	auipc	a5,0x6
    80002748:	5ca7b623          	sd	a0,1484(a5) # 80008d10 <initproc>
  p->cwd = namei("/");
    8000274c:	00006517          	auipc	a0,0x6
    80002750:	de450513          	addi	a0,a0,-540 # 80008530 <digits+0x4f8>
    80002754:	7f1010ef          	jal	ra,80004744 <namei>
    80002758:	14a4b823          	sd	a0,336(s1)
  p->state = RUNNABLE;
    8000275c:	478d                	li	a5,3
    8000275e:	cc9c                	sw	a5,24(s1)
  release(&p->lock);
    80002760:	8526                	mv	a0,s1
    80002762:	ca2fe0ef          	jal	ra,80000c04 <release>
}
    80002766:	60e2                	ld	ra,24(sp)
    80002768:	6442                	ld	s0,16(sp)
    8000276a:	64a2                	ld	s1,8(sp)
    8000276c:	6105                	addi	sp,sp,32
    8000276e:	8082                	ret

0000000080002770 <growproc>:
{
    80002770:	1101                	addi	sp,sp,-32
    80002772:	ec06                	sd	ra,24(sp)
    80002774:	e822                	sd	s0,16(sp)
    80002776:	e426                	sd	s1,8(sp)
    80002778:	e04a                	sd	s2,0(sp)
    8000277a:	1000                	addi	s0,sp,32
    8000277c:	892a                	mv	s2,a0
  struct proc *p = myproc();
    8000277e:	c4bff0ef          	jal	ra,800023c8 <myproc>
    80002782:	84aa                	mv	s1,a0
  sz = p->sz;
    80002784:	652c                	ld	a1,72(a0)
  if(n > 0){
    80002786:	01204c63          	bgtz	s2,8000279e <growproc+0x2e>
  } else if(n < 0){
    8000278a:	02094463          	bltz	s2,800027b2 <growproc+0x42>
  p->sz = sz;
    8000278e:	e4ac                	sd	a1,72(s1)
  return 0;
    80002790:	4501                	li	a0,0
}
    80002792:	60e2                	ld	ra,24(sp)
    80002794:	6442                	ld	s0,16(sp)
    80002796:	64a2                	ld	s1,8(sp)
    80002798:	6902                	ld	s2,0(sp)
    8000279a:	6105                	addi	sp,sp,32
    8000279c:	8082                	ret
    if((sz = uvmalloc(p->pagetable, sz, sz + n, PTE_W)) == 0) {
    8000279e:	4691                	li	a3,4
    800027a0:	00b90633          	add	a2,s2,a1
    800027a4:	6928                	ld	a0,80(a0)
    800027a6:	a7bfe0ef          	jal	ra,80001220 <uvmalloc>
    800027aa:	85aa                	mv	a1,a0
    800027ac:	f16d                	bnez	a0,8000278e <growproc+0x1e>
      return -1;
    800027ae:	557d                	li	a0,-1
    800027b0:	b7cd                	j	80002792 <growproc+0x22>
    sz = uvmdealloc(p->pagetable, sz, sz + n);
    800027b2:	00b90633          	add	a2,s2,a1
    800027b6:	6928                	ld	a0,80(a0)
    800027b8:	a25fe0ef          	jal	ra,800011dc <uvmdealloc>
    800027bc:	85aa                	mv	a1,a0
    800027be:	bfc1                	j	8000278e <growproc+0x1e>

00000000800027c0 <kfork>:
{
    800027c0:	7139                	addi	sp,sp,-64
    800027c2:	fc06                	sd	ra,56(sp)
    800027c4:	f822                	sd	s0,48(sp)
    800027c6:	f426                	sd	s1,40(sp)
    800027c8:	f04a                	sd	s2,32(sp)
    800027ca:	ec4e                	sd	s3,24(sp)
    800027cc:	e852                	sd	s4,16(sp)
    800027ce:	e456                	sd	s5,8(sp)
    800027d0:	0080                	addi	s0,sp,64
  struct proc *p = myproc();
    800027d2:	bf7ff0ef          	jal	ra,800023c8 <myproc>
    800027d6:	8aaa                	mv	s5,a0
  if((np = allocproc()) == 0){
    800027d8:	e1fff0ef          	jal	ra,800025f6 <allocproc>
    800027dc:	0e050663          	beqz	a0,800028c8 <kfork+0x108>
    800027e0:	8a2a                	mv	s4,a0
  if(uvmcopy(p->pagetable, np->pagetable, p->sz) < 0){
    800027e2:	048ab603          	ld	a2,72(s5)
    800027e6:	692c                	ld	a1,80(a0)
    800027e8:	050ab503          	ld	a0,80(s5)
    800027ec:	b5dfe0ef          	jal	ra,80001348 <uvmcopy>
    800027f0:	04054863          	bltz	a0,80002840 <kfork+0x80>
  np->sz = p->sz;
    800027f4:	048ab783          	ld	a5,72(s5)
    800027f8:	04fa3423          	sd	a5,72(s4)
  *(np->trapframe) = *(p->trapframe);
    800027fc:	058ab683          	ld	a3,88(s5)
    80002800:	87b6                	mv	a5,a3
    80002802:	058a3703          	ld	a4,88(s4)
    80002806:	12068693          	addi	a3,a3,288
    8000280a:	0007b803          	ld	a6,0(a5)
    8000280e:	6788                	ld	a0,8(a5)
    80002810:	6b8c                	ld	a1,16(a5)
    80002812:	6f90                	ld	a2,24(a5)
    80002814:	01073023          	sd	a6,0(a4)
    80002818:	e708                	sd	a0,8(a4)
    8000281a:	eb0c                	sd	a1,16(a4)
    8000281c:	ef10                	sd	a2,24(a4)
    8000281e:	02078793          	addi	a5,a5,32
    80002822:	02070713          	addi	a4,a4,32
    80002826:	fed792e3          	bne	a5,a3,8000280a <kfork+0x4a>
  np->trapframe->a0 = 0;
    8000282a:	058a3783          	ld	a5,88(s4)
    8000282e:	0607b823          	sd	zero,112(a5)
  for(i = 0; i < NOFILE; i++)
    80002832:	0d0a8493          	addi	s1,s5,208
    80002836:	0d0a0913          	addi	s2,s4,208
    8000283a:	150a8993          	addi	s3,s5,336
    8000283e:	a829                	j	80002858 <kfork+0x98>
    freeproc(np);
    80002840:	8552                	mv	a0,s4
    80002842:	d57ff0ef          	jal	ra,80002598 <freeproc>
    release(&np->lock);
    80002846:	8552                	mv	a0,s4
    80002848:	bbcfe0ef          	jal	ra,80000c04 <release>
    return -1;
    8000284c:	597d                	li	s2,-1
    8000284e:	a09d                	j	800028b4 <kfork+0xf4>
  for(i = 0; i < NOFILE; i++)
    80002850:	04a1                	addi	s1,s1,8
    80002852:	0921                	addi	s2,s2,8
    80002854:	01348963          	beq	s1,s3,80002866 <kfork+0xa6>
    if(p->ofile[i])
    80002858:	6088                	ld	a0,0(s1)
    8000285a:	d97d                	beqz	a0,80002850 <kfork+0x90>
      np->ofile[i] = filedup(p->ofile[i]);
    8000285c:	4a0020ef          	jal	ra,80004cfc <filedup>
    80002860:	00a93023          	sd	a0,0(s2)
    80002864:	b7f5                	j	80002850 <kfork+0x90>
  np->cwd = idup(p->cwd);
    80002866:	150ab503          	ld	a0,336(s5)
    8000286a:	6b6010ef          	jal	ra,80003f20 <idup>
    8000286e:	14aa3823          	sd	a0,336(s4)
  safestrcpy(np->name, p->name, sizeof(p->name));
    80002872:	4641                	li	a2,16
    80002874:	158a8593          	addi	a1,s5,344
    80002878:	158a0513          	addi	a0,s4,344
    8000287c:	d0afe0ef          	jal	ra,80000d86 <safestrcpy>
  pid = np->pid;
    80002880:	030a2903          	lw	s2,48(s4)
  release(&np->lock);
    80002884:	8552                	mv	a0,s4
    80002886:	b7efe0ef          	jal	ra,80000c04 <release>
  acquire(&wait_lock);
    8000288a:	0000e497          	auipc	s1,0xe
    8000288e:	5a648493          	addi	s1,s1,1446 # 80010e30 <wait_lock>
    80002892:	8526                	mv	a0,s1
    80002894:	ad8fe0ef          	jal	ra,80000b6c <acquire>
  np->parent = p;
    80002898:	035a3c23          	sd	s5,56(s4)
  release(&wait_lock);
    8000289c:	8526                	mv	a0,s1
    8000289e:	b66fe0ef          	jal	ra,80000c04 <release>
  acquire(&np->lock);
    800028a2:	8552                	mv	a0,s4
    800028a4:	ac8fe0ef          	jal	ra,80000b6c <acquire>
  np->state = RUNNABLE;
    800028a8:	478d                	li	a5,3
    800028aa:	00fa2c23          	sw	a5,24(s4)
  release(&np->lock);
    800028ae:	8552                	mv	a0,s4
    800028b0:	b54fe0ef          	jal	ra,80000c04 <release>
}
    800028b4:	854a                	mv	a0,s2
    800028b6:	70e2                	ld	ra,56(sp)
    800028b8:	7442                	ld	s0,48(sp)
    800028ba:	74a2                	ld	s1,40(sp)
    800028bc:	7902                	ld	s2,32(sp)
    800028be:	69e2                	ld	s3,24(sp)
    800028c0:	6a42                	ld	s4,16(sp)
    800028c2:	6aa2                	ld	s5,8(sp)
    800028c4:	6121                	addi	sp,sp,64
    800028c6:	8082                	ret
    return -1;
    800028c8:	597d                	li	s2,-1
    800028ca:	b7ed                	j	800028b4 <kfork+0xf4>

00000000800028cc <scheduler>:
{
    800028cc:	711d                	addi	sp,sp,-96
    800028ce:	ec86                	sd	ra,88(sp)
    800028d0:	e8a2                	sd	s0,80(sp)
    800028d2:	e4a6                	sd	s1,72(sp)
    800028d4:	e0ca                	sd	s2,64(sp)
    800028d6:	fc4e                	sd	s3,56(sp)
    800028d8:	f852                	sd	s4,48(sp)
    800028da:	f456                	sd	s5,40(sp)
    800028dc:	f05a                	sd	s6,32(sp)
    800028de:	ec5e                	sd	s7,24(sp)
    800028e0:	e862                	sd	s8,16(sp)
    800028e2:	e466                	sd	s9,8(sp)
    800028e4:	1080                	addi	s0,sp,96
    800028e6:	8792                	mv	a5,tp
  int id = r_tp();
    800028e8:	2781                	sext.w	a5,a5
  c->proc = 0;
    800028ea:	00779c13          	slli	s8,a5,0x7
    800028ee:	0000e717          	auipc	a4,0xe
    800028f2:	52a70713          	addi	a4,a4,1322 # 80010e18 <pid_lock>
    800028f6:	9762                	add	a4,a4,s8
    800028f8:	02073823          	sd	zero,48(a4)
        swtch(&c->context, &p->context);
    800028fc:	0000e717          	auipc	a4,0xe
    80002900:	55470713          	addi	a4,a4,1364 # 80010e50 <cpus+0x8>
    80002904:	9c3a                	add	s8,s8,a4
        p->state = RUNNING;
    80002906:	4c91                	li	s9,4
        c->proc = p;
    80002908:	079e                	slli	a5,a5,0x7
    8000290a:	0000ea97          	auipc	s5,0xe
    8000290e:	50ea8a93          	addi	s5,s5,1294 # 80010e18 <pid_lock>
    80002912:	9abe                	add	s5,s5,a5
    for(p = proc; p < &proc[NPROC]; p++) {
    80002914:	6989                	lui	s3,0x2
    80002916:	bf098993          	addi	s3,s3,-1040 # 1bf0 <_entry-0x7fffe410>
    8000291a:	0007ea17          	auipc	s4,0x7e
    8000291e:	52ea0a13          	addi	s4,s4,1326 # 80080e48 <tickslock>
    80002922:	a835                	j	8000295e <scheduler+0x92>
      release(&p->lock);
    80002924:	8526                	mv	a0,s1
    80002926:	adefe0ef          	jal	ra,80000c04 <release>
    for(p = proc; p < &proc[NPROC]; p++) {
    8000292a:	94ce                	add	s1,s1,s3
    8000292c:	03448563          	beq	s1,s4,80002956 <scheduler+0x8a>
      acquire(&p->lock);
    80002930:	8526                	mv	a0,s1
    80002932:	a3afe0ef          	jal	ra,80000b6c <acquire>
      if(p->state == RUNNABLE) {
    80002936:	4c9c                	lw	a5,24(s1)
    80002938:	ff2796e3          	bne	a5,s2,80002924 <scheduler+0x58>
        p->state = RUNNING;
    8000293c:	0194ac23          	sw	s9,24(s1)
        c->proc = p;
    80002940:	029ab823          	sd	s1,48(s5)
        swtch(&c->context, &p->context);
    80002944:	06048593          	addi	a1,s1,96
    80002948:	8562                	mv	a0,s8
    8000294a:	60a000ef          	jal	ra,80002f54 <swtch>
        c->proc = 0;
    8000294e:	020ab823          	sd	zero,48(s5)
        found = 1;
    80002952:	8b5e                	mv	s6,s7
    80002954:	bfc1                	j	80002924 <scheduler+0x58>
    if(found == 0) {
    80002956:	000b1463          	bnez	s6,8000295e <scheduler+0x92>
      asm volatile("wfi");
    8000295a:	10500073          	wfi
  asm volatile("csrr %0, sstatus" : "=r" (x) );
    8000295e:	100027f3          	csrr	a5,sstatus
  w_sstatus(r_sstatus() | SSTATUS_SIE);
    80002962:	0027e793          	ori	a5,a5,2
  asm volatile("csrw sstatus, %0" : : "r" (x));
    80002966:	10079073          	csrw	sstatus,a5
  asm volatile("csrr %0, sstatus" : "=r" (x) );
    8000296a:	100027f3          	csrr	a5,sstatus
  w_sstatus(r_sstatus() & ~SSTATUS_SIE);
    8000296e:	9bf5                	andi	a5,a5,-3
  asm volatile("csrw sstatus, %0" : : "r" (x));
    80002970:	10079073          	csrw	sstatus,a5
    int found = 0;
    80002974:	4b01                	li	s6,0
    for(p = proc; p < &proc[NPROC]; p++) {
    80002976:	0000f497          	auipc	s1,0xf
    8000297a:	8d248493          	addi	s1,s1,-1838 # 80011248 <proc>
      if(p->state == RUNNABLE) {
    8000297e:	490d                	li	s2,3
        found = 1;
    80002980:	4b85                	li	s7,1
    80002982:	b77d                	j	80002930 <scheduler+0x64>

0000000080002984 <sched>:
{
    80002984:	7179                	addi	sp,sp,-48
    80002986:	f406                	sd	ra,40(sp)
    80002988:	f022                	sd	s0,32(sp)
    8000298a:	ec26                	sd	s1,24(sp)
    8000298c:	e84a                	sd	s2,16(sp)
    8000298e:	e44e                	sd	s3,8(sp)
    80002990:	1800                	addi	s0,sp,48
  struct proc *p = myproc();
    80002992:	a37ff0ef          	jal	ra,800023c8 <myproc>
    80002996:	84aa                	mv	s1,a0
  if(!holding(&p->lock))
    80002998:	96afe0ef          	jal	ra,80000b02 <holding>
    8000299c:	c92d                	beqz	a0,80002a0e <sched+0x8a>
  asm volatile("mv %0, tp" : "=r" (x) );
    8000299e:	8792                	mv	a5,tp
  if(mycpu()->noff != 1)
    800029a0:	2781                	sext.w	a5,a5
    800029a2:	079e                	slli	a5,a5,0x7
    800029a4:	0000e717          	auipc	a4,0xe
    800029a8:	47470713          	addi	a4,a4,1140 # 80010e18 <pid_lock>
    800029ac:	97ba                	add	a5,a5,a4
    800029ae:	0a87a703          	lw	a4,168(a5)
    800029b2:	4785                	li	a5,1
    800029b4:	06f71363          	bne	a4,a5,80002a1a <sched+0x96>
  if(p->state == RUNNING)
    800029b8:	4c98                	lw	a4,24(s1)
    800029ba:	4791                	li	a5,4
    800029bc:	06f70563          	beq	a4,a5,80002a26 <sched+0xa2>
  asm volatile("csrr %0, sstatus" : "=r" (x) );
    800029c0:	100027f3          	csrr	a5,sstatus
  return (x & SSTATUS_SIE) != 0;
    800029c4:	8b89                	andi	a5,a5,2
  if(intr_get())
    800029c6:	e7b5                	bnez	a5,80002a32 <sched+0xae>
  asm volatile("mv %0, tp" : "=r" (x) );
    800029c8:	8792                	mv	a5,tp
  intena = mycpu()->intena;
    800029ca:	0000e917          	auipc	s2,0xe
    800029ce:	44e90913          	addi	s2,s2,1102 # 80010e18 <pid_lock>
    800029d2:	2781                	sext.w	a5,a5
